STMicroelectronics list file postprocessor v1.01   (C)2009-2022   Sun May 01 18:30:37 2022
Page 1  Assembler
                                               c:\users\manama\documents\stm8\stm8 programs\stm8sk9822ledstrip\main.asm

   1                         stm8/     
   2                         
   0  000000                                 #include "mapping.inc"
   1                                                          ;-------------------------------
                                                                ;-----------------------
   2                                                          ; SEGMENT MAPPING FILE 
                                                                ;AUTOMATICALLY GENERATED BY 
                                                                ;STVD
   3                                                          ; SHOULD NOT BE MANUALLY 
                                                                ;MODIFIED.
   4                                                          ; CHANGES WILL BE LOST WHEN FILE
                                                                ; IS REGENERATED.
   5                                                          ;-------------------------------
                                                                ;-----------------------
   6  000000                                 #define  RAM0 1
   7  000000                                 #define  ram0_segment_start 0
   8  000000                                 #define  ram0_segment_end FF
   9  000000                                 #define  RAM1 1
  10  000000                                 #define  ram1_segment_start 100
  11  000000                                 #define  ram1_segment_end 1FF
  12  000000                                 #define  stack_segment_start 200
  13  000000                                 #define  stack_segment_end 3FF
<END_OF_INCLUSION>
   0  000000                                 #include "STM8S103F.inc"
   1                         ; STM8S103F.inc
   2                         
   3                         ; Copyright (c) 2003-2012 STMicroelectronics
   4                         
   5  000000 U                               #ifdef   __STM8S103F__
   8  000000                                 #define  __STM8S103F__ 1
   9                         
  10                         ; STM8S103F
  11                         
  12                         
  13                         ; Port A
  14                         ;;;;;;;;;;;;;;;;;;;;;;;;;;;;;;;;;;;;;;;;;;;;;;;;;;;;;;;;;;;;;;
                               ;;;;;;
  15                         
  16  000000                                 EXTERN   PA_ODR.w      ; Port A data output latch 
                                                                ;register
  17                         
  18  000000                                 EXTERN   PA_IDR.w      ; Port A input pin value 
                                                                ;register
  19                         
  20  000000                                 EXTERN   PA_DDR.w      ; Port A data direction 
                                                                ;register
  21                         
  22  000000                                 EXTERN   PA_CR1.w      ; Port A control register 1
  23                         
  24  000000                                 EXTERN   PA_CR2.w      ; Port A control register 2
  25                         
  26                         ; Port B
  27                         ;;;;;;;;;;;;;;;;;;;;;;;;;;;;;;;;;;;;;;;;;;;;;;;;;;;;;;;;;;;;;;
                               ;;;;;;
  28                         
  29  000000                                 EXTERN   PB_ODR.w      ; Port B data output latch 
                                                                ;register
  30                         
STMicroelectronics list file postprocessor v1.01   (C)2009-2022   Sun May 01 18:30:37 2022
Page 2  Assembler
                                               c:\users\manama\documents\stm8\stm8 programs\stm8sk9822ledstrip\main.asm

  31  000000                                 EXTERN   PB_IDR.w      ; Port B input pin value 
                                                                ;register
  32                         
  33  000000                                 EXTERN   PB_DDR.w      ; Port B data direction 
                                                                ;register
  34                         
  35  000000                                 EXTERN   PB_CR1.w      ; Port B control register 1
  36                         
  37  000000                                 EXTERN   PB_CR2.w      ; Port B control register 2
  38                         
  39                         ; Port C
  40                         ;;;;;;;;;;;;;;;;;;;;;;;;;;;;;;;;;;;;;;;;;;;;;;;;;;;;;;;;;;;;;;
                               ;;;;;;
  41                         
  42  000000                                 EXTERN   PC_ODR.w      ; Port C data output latch 
                                                                ;register
  43                         
  44  000000                                 EXTERN   PC_IDR.w      ; Port C input pin value 
                                                                ;register
  45                         
  46  000000                                 EXTERN   PC_DDR.w      ; Port C data direction 
                                                                ;register
  47                         
  48  000000                                 EXTERN   PC_CR1.w      ; Port C control register 1
  49                         
  50  000000                                 EXTERN   PC_CR2.w      ; Port C control register 2
  51                         
  52                         ; Port D
  53                         ;;;;;;;;;;;;;;;;;;;;;;;;;;;;;;;;;;;;;;;;;;;;;;;;;;;;;;;;;;;;;;
                               ;;;;;;
  54                         
  55  000000                                 EXTERN   PD_ODR.w      ; Port D data output latch 
                                                                ;register
  56                         
  57  000000                                 EXTERN   PD_IDR.w      ; Port D input pin value 
                                                                ;register
  58                         
  59  000000                                 EXTERN   PD_DDR.w      ; Port D data direction 
                                                                ;register
  60                         
  61  000000                                 EXTERN   PD_CR1.w      ; Port D control register 1
  62                         
  63  000000                                 EXTERN   PD_CR2.w      ; Port D control register 2
  64                         
  65                         ; Flash
  66                         ;;;;;;;;;;;;;;;;;;;;;;;;;;;;;;;;;;;;;;;;;;;;;;;;;;;;;;;;;;;;;;
                               ;;;;;;
  67                         
  68  000000                                 EXTERN   FLASH_CR1.w   ; Flash control register 1
  69                         
  70  000000                                 EXTERN   FLASH_CR2.w   ; Flash control register 2
  71                         
  72  000000                                 EXTERN   FLASH_NCR2.w  ; Flash complementary control 
                                                                ;register 2
  73                         
  74  000000                                 EXTERN   FLASH_FPR.w   ; Flash protection register
  75                         
STMicroelectronics list file postprocessor v1.01   (C)2009-2022   Sun May 01 18:30:37 2022
Page 3  Assembler
                                               c:\users\manama\documents\stm8\stm8 programs\stm8sk9822ledstrip\main.asm

  76  000000                                 EXTERN   FLASH_NFPR.w  ; Flash complementary protection
                                                                ; register
  77                         
  78  000000                                 EXTERN   FLASH_IAPSR.w  ; Flash in-application 
                                                                ;programming status register
  79                         
  80  000000                                 EXTERN   FLASH_PUKR.w  ; Flash Program memory 
                                                                ;unprotection register
  81                         
  82  000000                                 EXTERN   FLASH_DUKR.w  ; Data EEPROM unprotection 
                                                                ;register
  83                         
  84                         ; External Interrupt Control Register (ITC)
  85                         ;;;;;;;;;;;;;;;;;;;;;;;;;;;;;;;;;;;;;;;;;;;;;;;;;;;;;;;;;;;;;;
                               ;;;;;;
  86                         
  87  000000                                 EXTERN   EXTI_CR1.w    ; External interrupt control 
                                                                ;register 1
  88                         
  89  000000                                 EXTERN   EXTI_CR2.w    ; External interrupt control 
                                                                ;register 2
  90                         
  91                         ; Reset (RST)
  92                         ;;;;;;;;;;;;;;;;;;;;;;;;;;;;;;;;;;;;;;;;;;;;;;;;;;;;;;;;;;;;;;
                               ;;;;;;
  93                         
  94  000000                                 EXTERN   RST_SR.w      ; Reset status register 1
  95                         
  96                         ; Clock Control (CLK)
  97                         ;;;;;;;;;;;;;;;;;;;;;;;;;;;;;;;;;;;;;;;;;;;;;;;;;;;;;;;;;;;;;;
                               ;;;;;;
  98                         
  99  000000                                 EXTERN   CLK_ICKR.w    ; Internal clock control 
                                                                ;register
 100                         
 101  000000                                 EXTERN   CLK_ECKR.w    ; External clock control 
                                                                ;register
 102                         
 103  000000                                 EXTERN   CLK_CMSR.w    ; Clock master status register
 104                         
 105  000000                                 EXTERN   CLK_SWR.w     ; Clock master switch register
 106                         
 107  000000                                 EXTERN   CLK_SWCR.w    ; Clock switch control register
 108                         
 109  000000                                 EXTERN   CLK_CKDIVR.w  ; Clock divider register
 110                         
 111  000000                                 EXTERN   CLK_PCKENR1.w  ; Peripheral clock gating 
                                                                ;register 1
 112                         
 113  000000                                 EXTERN   CLK_CSSR.w    ; Clock security system 
                                                                ;register
 114                         
 115  000000                                 EXTERN   CLK_CCOR.w    ; Configurable clock control 
                                                                ;register
 116                         
 117  000000                                 EXTERN   CLK_PCKENR2.w  ; Peripheral clock gating 
                                                                ;register 2
STMicroelectronics list file postprocessor v1.01   (C)2009-2022   Sun May 01 18:30:37 2022
Page 4  Assembler
                                               c:\users\manama\documents\stm8\stm8 programs\stm8sk9822ledstrip\main.asm

 118                         
 119  000000                                 EXTERN   CLK_CANCCR.w  ; CAN clock control register
 120                         
 121  000000                                 EXTERN   CLK_HSITRIMR.w  ; HSI clock calibration trimming
                                                                ; register
 122                         
 123  000000                                 EXTERN   CLK_SWIMCCR.w  ; SWIM clock control register
 124                         
 125                         ; Window Watchdog (WWDG)
 126                         ;;;;;;;;;;;;;;;;;;;;;;;;;;;;;;;;;;;;;;;;;;;;;;;;;;;;;;;;;;;;;;
                               ;;;;;;
 127                         
 128  000000                                 EXTERN   WWDG_CR.w     ; WWDG Control Register
 129                         
 130  000000                                 EXTERN   WWDG_WR.w     ; WWDR Window Register
 131                         
 132                         ; Independent Watchdog (IWDG)
 133                         ;;;;;;;;;;;;;;;;;;;;;;;;;;;;;;;;;;;;;;;;;;;;;;;;;;;;;;;;;;;;;;
                               ;;;;;;
 134                         
 135  000000                                 EXTERN   IWDG_KR.w     ; IWDG Key Register
 136                         
 137  000000                                 EXTERN   IWDG_PR.w     ; IWDG Prescaler Register
 138                         
 139  000000                                 EXTERN   IWDG_RLR.w    ; IWDG Reload Register
 140                         
 141                         ; Auto Wake-Up (AWU)
 142                         ;;;;;;;;;;;;;;;;;;;;;;;;;;;;;;;;;;;;;;;;;;;;;;;;;;;;;;;;;;;;;;
                               ;;;;;;
 143                         
 144  000000                                 EXTERN   AWU_CSR.w     ; AWU Control/Status Register
 145                         
 146  000000                                 EXTERN   AWU_APR.w     ; AWU asynchronous prescaler 
                                                                ;buffer register
 147                         
 148  000000                                 EXTERN   AWU_TBR.w     ; AWU Timebase selection 
                                                                ;register
 149                         
 150                         ; Beeper (BEEP)
 151                         ;;;;;;;;;;;;;;;;;;;;;;;;;;;;;;;;;;;;;;;;;;;;;;;;;;;;;;;;;;;;;;
                               ;;;;;;
 152                         
 153  000000                                 EXTERN   BEEP_CSR.w    ; BEEP Control/Status Register
 154                         
 155                         ; Serial Peripheral Interface (SPI)
 156                         ;;;;;;;;;;;;;;;;;;;;;;;;;;;;;;;;;;;;;;;;;;;;;;;;;;;;;;;;;;;;;;
                               ;;;;;;
 157                         
 158  000000                                 EXTERN   SPI_CR1.w     ; SPI Control Register 1
 159                         
 160  000000                                 EXTERN   SPI_CR2.w     ; SPI Control Register 2
 161                         
 162  000000                                 EXTERN   SPI_ICR.w     ; SPI Interrupt Control 
                                                                ;Register
 163                         
 164  000000                                 EXTERN   SPI_SR.w      ; SPI Status Register
 165                         
STMicroelectronics list file postprocessor v1.01   (C)2009-2022   Sun May 01 18:30:37 2022
Page 5  Assembler
                                               c:\users\manama\documents\stm8\stm8 programs\stm8sk9822ledstrip\main.asm

 166  000000                                 EXTERN   SPI_DR.w      ; SPI Data Register
 167                         
 168  000000                                 EXTERN   SPI_CRCPR.w   ; SPI CRC Polynomial Register
 169                         
 170  000000                                 EXTERN   SPI_RXCRCR.w  ; SPI Rx CRC Register
 171                         
 172  000000                                 EXTERN   SPI_TXCRCR.w  ; SPI Tx CRC Register
 173                         
 174                         ; I2C Bus Interface (I2C)
 175                         ;;;;;;;;;;;;;;;;;;;;;;;;;;;;;;;;;;;;;;;;;;;;;;;;;;;;;;;;;;;;;;
                               ;;;;;;
 176                         
 177  000000                                 EXTERN   I2C_CR1.w     ; I2C control register 1
 178                         
 179  000000                                 EXTERN   I2C_CR2.w     ; I2C control register 2
 180                         
 181  000000                                 EXTERN   I2C_FREQR.w   ; I2C frequency register
 182                         
 183  000000                                 EXTERN   I2C_OARL.w    ; I2C Own address register low
 184                         
 185  000000                                 EXTERN   I2C_OARH.w    ; I2C Own address register high
 186                         
 187  000000                                 EXTERN   I2C_DR.w      ; I2C data register
 188                         
 189  000000                                 EXTERN   I2C_SR1.w     ; I2C status register 1
 190                         
 191  000000                                 EXTERN   I2C_SR2.w     ; I2C status register 2
 192                         
 193  000000                                 EXTERN   I2C_SR3.w     ; I2C status register 3
 194                         
 195  000000                                 EXTERN   I2C_ITR.w     ; I2C interrupt control 
                                                                ;register
 196                         
 197  000000                                 EXTERN   I2C_CCRL.w    ; I2C Clock control register 
                                                                ;low
 198                         
 199  000000                                 EXTERN   I2C_CCRH.w    ; I2C Clock control register 
                                                                ;high
 200                         
 201  000000                                 EXTERN   I2C_TRISER.w  ; I2C TRISE register
 202                         
 203  000000                                 EXTERN   I2C_PECR.w    ; I2C packet error checking 
                                                                ;register
 204                         
 205                         ; Universal synch/asynch receiver transmitter (UART1)
 206                         ;;;;;;;;;;;;;;;;;;;;;;;;;;;;;;;;;;;;;;;;;;;;;;;;;;;;;;;;;;;;;;
                               ;;;;;;
 207                         
 208  000000                                 EXTERN   UART1_SR.w    ; UART1 Status Register
 209                         
 210  000000                                 EXTERN   UART1_DR.w    ; UART1 Data Register
 211                         
 212  000000                                 EXTERN   UART1_BRR1.w  ; UART1 Baud Rate Register 1
 213                         
 214  000000                                 EXTERN   UART1_BRR2.w  ; UART1 Baud Rate Register 2
 215                         
 216  000000                                 EXTERN   UART1_CR1.w   ; UART1 Control Register 1
STMicroelectronics list file postprocessor v1.01   (C)2009-2022   Sun May 01 18:30:37 2022
Page 6  Assembler
                                               c:\users\manama\documents\stm8\stm8 programs\stm8sk9822ledstrip\main.asm

 217                         
 218  000000                                 EXTERN   UART1_CR2.w   ; UART1 Control Register 2
 219                         
 220  000000                                 EXTERN   UART1_CR3.w   ; UART1 Control Register 3
 221                         
 222  000000                                 EXTERN   UART1_CR4.w   ; UART1 Control Register 4
 223                         
 224  000000                                 EXTERN   UART1_CR5.w   ; UART1 Control Register 5
 225                         
 226  000000                                 EXTERN   UART1_GTR.w   ; UART1 Guard time Register
 227                         
 228  000000                                 EXTERN   UART1_PSCR.w  ; UART1 Prescaler Register
 229                         
 230                         ; 16-Bit Timer 1 (TIM1)
 231                         ;;;;;;;;;;;;;;;;;;;;;;;;;;;;;;;;;;;;;;;;;;;;;;;;;;;;;;;;;;;;;;
                               ;;;;;;
 232                         
 233  000000                                 EXTERN   TIM1_CR1.w    ; TIM1 Control register 1
 234                         
 235  000000                                 EXTERN   TIM1_CR2.w    ; TIM1 Control register 2
 236                         
 237  000000                                 EXTERN   TIM1_SMCR.w   ; TIM1 Slave Mode Control 
                                                                ;register
 238                         
 239  000000                                 EXTERN   TIM1_ETR.w    ; TIM1 external trigger 
                                                                ;register
 240                         
 241  000000                                 EXTERN   TIM1_IER.w    ; TIM1 Interrupt enable 
                                                                ;register
 242                         
 243  000000                                 EXTERN   TIM1_SR1.w    ; TIM1 Status register 1
 244                         
 245  000000                                 EXTERN   TIM1_SR2.w    ; TIM1 Status register 2
 246                         
 247  000000                                 EXTERN   TIM1_EGR.w    ; TIM1 Event Generation 
                                                                ;register
 248                         
 249  000000                                 EXTERN   TIM1_CCMR1.w  ; TIM1 Capture/Compare mode 
                                                                ;register 1
 250                         
 251  000000                                 EXTERN   TIM1_CCMR2.w  ; TIM1 Capture/Compare mode 
                                                                ;register 2
 252                         
 253  000000                                 EXTERN   TIM1_CCMR3.w  ; TIM1 Capture/Compare mode 
                                                                ;register 3
 254                         
 255  000000                                 EXTERN   TIM1_CCMR4.w  ; TIM1 Capture/Compare mode 
                                                                ;register 4
 256                         
 257  000000                                 EXTERN   TIM1_CCER1.w  ; TIM1 Capture/Compare enable 
                                                                ;register 1
 258                         
 259  000000                                 EXTERN   TIM1_CCER2.w  ; TIM1 Capture/Compare enable 
                                                                ;register 2
 260                         
 261  000000                                 EXTERN   TIM1_CNTRH.w  ; Data bits High
 262                         
STMicroelectronics list file postprocessor v1.01   (C)2009-2022   Sun May 01 18:30:37 2022
Page 7  Assembler
                                               c:\users\manama\documents\stm8\stm8 programs\stm8sk9822ledstrip\main.asm

 263  000000                                 EXTERN   TIM1_CNTRL.w  ; Data bits Low
 264                         
 265  000000                                 EXTERN   TIM1_PSCRH.w  ; Data bits High
 266                         
 267  000000                                 EXTERN   TIM1_PSCRL.w  ; Data bits Low
 268                         
 269  000000                                 EXTERN   TIM1_ARRH.w   ; Data bits High
 270                         
 271  000000                                 EXTERN   TIM1_ARRL.w   ; Data bits Low
 272                         
 273  000000                                 EXTERN   TIM1_RCR.w    ; TIM1 Repetition counter 
                                                                ;register
 274                         
 275  000000                                 EXTERN   TIM1_CCR1H.w  ; Data bits High
 276                         
 277  000000                                 EXTERN   TIM1_CCR1L.w  ; Data bits Low
 278                         
 279  000000                                 EXTERN   TIM1_CCR2H.w  ; Data bits High
 280                         
 281  000000                                 EXTERN   TIM1_CCR2L.w  ; Data bits Low
 282                         
 283  000000                                 EXTERN   TIM1_CCR3H.w  ; Data bits High
 284                         
 285  000000                                 EXTERN   TIM1_CCR3L.w  ; Data bits Low
 286                         
 287  000000                                 EXTERN   TIM1_CCR4H.w  ; Data bits High
 288                         
 289  000000                                 EXTERN   TIM1_CCR4L.w  ; Data bits Low
 290                         
 291  000000                                 EXTERN   TIM1_BKR.w    ; TIM1 Break register
 292                         
 293  000000                                 EXTERN   TIM1_DTR.w    ; TIM1 Dead-time register
 294                         
 295  000000                                 EXTERN   TIM1_OISR.w   ; TIM1 Output idle state 
                                                                ;register
 296                         
 297                         ; 16-Bit Timer 2 (TIM2)
 298                         ;;;;;;;;;;;;;;;;;;;;;;;;;;;;;;;;;;;;;;;;;;;;;;;;;;;;;;;;;;;;;;
                               ;;;;;;
 299                         
 300  000000                                 EXTERN   TIM2_CR1.w    ; TIM2 Control register 1
 301                         
 302  000000                                 EXTERN   TIM2_IER.w    ; TIM2 Interrupt enable 
                                                                ;register
 303                         
 304  000000                                 EXTERN   TIM2_SR1.w    ; TIM2 Status register 1
 305                         
 306  000000                                 EXTERN   TIM2_SR2.w    ; TIM2 Status register 2
 307                         
 308  000000                                 EXTERN   TIM2_EGR.w    ; TIM2 Event Generation 
                                                                ;register
 309                         
 310  000000                                 EXTERN   TIM2_CCMR1.w  ; TIM2 Capture/Compare mode 
                                                                ;register 1
 311                         
 312  000000                                 EXTERN   TIM2_CCMR2.w  ; TIM2 Capture/Compare mode 
                                                                ;register 2
STMicroelectronics list file postprocessor v1.01   (C)2009-2022   Sun May 01 18:30:37 2022
Page 8  Assembler
                                               c:\users\manama\documents\stm8\stm8 programs\stm8sk9822ledstrip\main.asm

 313                         
 314  000000                                 EXTERN   TIM2_CCMR3.w  ; TIM2 Capture/Compare mode 
                                                                ;register 3
 315                         
 316  000000                                 EXTERN   TIM2_CCER1.w  ; TIM2 Capture/Compare enable 
                                                                ;register 1
 317                         
 318  000000                                 EXTERN   TIM2_CCER2.w  ; TIM2 Capture/Compare enable 
                                                                ;register 2
 319                         
 320  000000                                 EXTERN   TIM2_CNTRH.w  ; Data bits High
 321                         
 322  000000                                 EXTERN   TIM2_CNTRL.w  ; Data bits Low
 323                         
 324  000000                                 EXTERN   TIM2_PSCR.w   ; TIM2 Prescaler register
 325                         
 326  000000                                 EXTERN   TIM2_ARRH.w   ; Data bits High
 327                         
 328  000000                                 EXTERN   TIM2_ARRL.w   ; Data bits Low
 329                         
 330  000000                                 EXTERN   TIM2_CCR1H.w  ; Data bits High
 331                         
 332  000000                                 EXTERN   TIM2_CCR1L.w  ; Data bits Low
 333                         
 334  000000                                 EXTERN   TIM2_CCR2H.w  ; Data bits High
 335                         
 336  000000                                 EXTERN   TIM2_CCR2L.w  ; Data bits Low
 337                         
 338  000000                                 EXTERN   TIM2_CCR3H.w  ; Data bits High
 339                         
 340  000000                                 EXTERN   TIM2_CCR3L.w  ; Data bits Low
 341                         
 342                         ; 8-Bit  Timer 4 (TIM4)
 343                         ;;;;;;;;;;;;;;;;;;;;;;;;;;;;;;;;;;;;;;;;;;;;;;;;;;;;;;;;;;;;;;
                               ;;;;;;
 344                         
 345  000000                                 EXTERN   TIM4_CR1.w    ; TIM4 Control register 1
 346                         
 347  000000                                 EXTERN   TIM4_IER.w    ; TIM4 Interrupt enable 
                                                                ;register
 348                         
 349  000000                                 EXTERN   TIM4_SR.w     ; TIM4 Status register
 350                         
 351  000000                                 EXTERN   TIM4_EGR.w    ; TIM4 Event Generation 
                                                                ;register
 352                         
 353  000000                                 EXTERN   TIM4_CNTR.w   ; TIM4 Counter
 354                         
 355  000000                                 EXTERN   TIM4_PSCR.w   ; TIM4 Prescaler register
 356                         
 357  000000                                 EXTERN   TIM4_ARR.w    ; TIM4 Auto-reload register
 358                         
 359                         ; 10-Bit A/D Converter (ADC1)
 360                         ;;;;;;;;;;;;;;;;;;;;;;;;;;;;;;;;;;;;;;;;;;;;;;;;;;;;;;;;;;;;;;
                               ;;;;;;
 361                         
 362  000000                                 EXTERN   ADC_DB0RH.w   ; Data Buffer register 0 High
STMicroelectronics list file postprocessor v1.01   (C)2009-2022   Sun May 01 18:30:37 2022
Page 9  Assembler
                                               c:\users\manama\documents\stm8\stm8 programs\stm8sk9822ledstrip\main.asm

 363                         
 364  000000                                 EXTERN   ADC_DB0RL.w   ; Data Buffer register 0 Low
 365                         
 366  000000                                 EXTERN   ADC_DB1RH.w   ; Data Buffer register 1 High
 367                         
 368  000000                                 EXTERN   ADC_DB1RL.w   ; Data Buffer register 1 Low
 369                         
 370  000000                                 EXTERN   ADC_DB2RH.w   ; Data Buffer register 2 High
 371                         
 372  000000                                 EXTERN   ADC_DB2RL.w   ; Data Buffer register 2 Low
 373                         
 374  000000                                 EXTERN   ADC_DB3RH.w   ; Data Buffer register 3 High
 375                         
 376  000000                                 EXTERN   ADC_DB3RL.w   ; Data Buffer register 3 Low
 377                         
 378  000000                                 EXTERN   ADC_DB4RH.w   ; Data Buffer register 4 High
 379                         
 380  000000                                 EXTERN   ADC_DB4RL.w   ; Data Buffer register 4 Low
 381                         
 382  000000                                 EXTERN   ADC_DB5RH.w   ; Data Buffer register 5 High
 383                         
 384  000000                                 EXTERN   ADC_DB5RL.w   ; Data Buffer register 5 Low
 385                         
 386  000000                                 EXTERN   ADC_DB6RH.w   ; Data Buffer register 6 High
 387                         
 388  000000                                 EXTERN   ADC_DB6RL.w   ; Data Buffer register 6 Low
 389                         
 390  000000                                 EXTERN   ADC_DB7RH.w   ; Data Buffer register 7 High
 391                         
 392  000000                                 EXTERN   ADC_DB7RL.w   ; Data Buffer register 7 Low
 393                         
 394  000000                                 EXTERN   ADC_DB8RH.w   ; Data Buffer register 8 High
 395                         
 396  000000                                 EXTERN   ADC_DB8RL.w   ; Data Buffer register 8 Low
 397                         
 398  000000                                 EXTERN   ADC_DB9RH.w   ; Data Buffer register 9 High
 399                         
 400  000000                                 EXTERN   ADC_DB9RL.w   ; Data Buffer register 9 Low
 401                         
 402  000000                                 EXTERN   ADC_CSR.w     ; ADC Control/Status Register
 403                         
 404  000000                                 EXTERN   ADC_CR1.w     ; ADC Configuration Register 1
 405                         
 406  000000                                 EXTERN   ADC_CR2.w     ; ADC Configuration Register 2
 407                         
 408  000000                                 EXTERN   ADC_CR3.w     ; ADC Configuration Register 3
 409                         
 410  000000                                 EXTERN   ADC_DRH.w     ; Data bits High
 411                         
 412  000000                                 EXTERN   ADC_DRL.w     ; Data bits Low
 413                         
 414  000000                                 EXTERN   ADC_TDRH.w    ; Schmitt trigger disable High
 415                         
 416  000000                                 EXTERN   ADC_TDRL.w    ; Schmitt trigger disable Low
 417                         
 418  000000                                 EXTERN   ADC_HTRH.w    ; High Threshold Register High
 419                         
STMicroelectronics list file postprocessor v1.01   (C)2009-2022   Sun May 01 18:30:37 2022
Page 10  Assembler
                                               c:\users\manama\documents\stm8\stm8 programs\stm8sk9822ledstrip\main.asm

 420  000000                                 EXTERN   ADC_HTRL.w    ; High Threshold Register Low
 421                         
 422  000000                                 EXTERN   ADC_LTRH.w    ; Low Threshold Register High
 423                         
 424  000000                                 EXTERN   ADC_LTRL.w    ; Low Threshold Register Low
 425                         
 426  000000                                 EXTERN   ADC_AWSRH.w   ; Analog Watchdog Status 
                                                                ;register High
 427                         
 428  000000                                 EXTERN   ADC_AWSRL.w   ; Analog Watchdog Status 
                                                                ;register Low
 429                         
 430  000000                                 EXTERN   ADC_AWCRH.w   ; Analog Watchdog Control 
                                                                ;register High
 431                         
 432  000000                                 EXTERN   ADC_AWCRL.w   ; Analog Watchdog Control 
                                                                ;register Low
 433                         
 434                         ;  Global configuration register (CFG)
 435                         ;;;;;;;;;;;;;;;;;;;;;;;;;;;;;;;;;;;;;;;;;;;;;;;;;;;;;;;;;;;;;;
                               ;;;;;;
 436                         
 437  000000                                 EXTERN   CFG_GCR.w     ; CFG Global configuration 
                                                                ;register
 438                         
 439                         ; Interrupt Software Priority Register (ITC)
 440                         ;;;;;;;;;;;;;;;;;;;;;;;;;;;;;;;;;;;;;;;;;;;;;;;;;;;;;;;;;;;;;;
                               ;;;;;;
 441                         
 442  000000                                 EXTERN   ITC_SPR1.w    ; Interrupt Software priority 
                                                                ;register 1
 443                         
 444  000000                                 EXTERN   ITC_SPR2.w    ; Interrupt Software priority 
                                                                ;register 2
 445                         
 446  000000                                 EXTERN   ITC_SPR3.w    ; Interrupt Software priority 
                                                                ;register 3
 447                         
 448  000000                                 EXTERN   ITC_SPR4.w    ; Interrupt Software priority 
                                                                ;register 4
 449                         
 450  000000                                 EXTERN   ITC_SPR5.w    ; Interrupt Software priority 
                                                                ;register 5
 451                         
 452  000000                                 EXTERN   ITC_SPR6.w    ; Interrupt Software priority 
                                                                ;register 6
 453                         
 454  000000                                 EXTERN   ITC_SPR7.w    ; Interrupt Software priority 
                                                                ;register 7
 455                         
 456  000000                                 #endif                 ; __STM8S103F__
<END_OF_INCLUSION>
   5                                   
   6                                   
   7                         ;MACRO's HERE
   8  000000                       pointerX  MACRO    first         ; mactro for calling pointerX
   9                                   ldw      X,first
  10  000000                                 MEND     
STMicroelectronics list file postprocessor v1.01   (C)2009-2022   Sun May 01 18:30:37 2022
Page 11  Assembler
                                               c:\users\manama\documents\stm8\stm8 programs\stm8sk9822ledstrip\main.asm

  11  000000                       pointerY  MACRO    first         ; macro for calling pointer Y
  12                                   ldw      Y,first
  13  000000                                 MEND     
  14  000000                       millis    MACRO    first         ; macro for milli seconds , eg 
                                                                ;call  millis 100 for 100ms
  15                                   pushw    Y
  16                                   ldw      Y,first
  17                                   call     delayYx1mS
  18                                   popw     Y
  19  000000                                 MEND     
  20                                   
  21  000000                       micros    MACRO    first         ; macro for micro seconds , eg 
                                                                ;micros 100  for 100us
  22                                   pushw    Y
  23                                   ldw      Y,first
  24                                   call     usdelay
  25                                   popw     Y
  26  000000                                 MEND     
  27                                   
  28                                   segment  byte at 100 'ram1' 
  29                                   
  30                         ;ALL RAM variables here	  
  31  000100                       buffer1   ds.b                   ; reserve 1 byte for temp 
                                                                ;storage
  32  000101                       buffer2   ds.b                   ; reserve 1 byte for temp 
                                                                ;storage
  33  000102                       buffer3   ds.b                   ; reserve 1 byte for temp 
                                                                ;storage
  34  000103                       buffer4   ds.b                   ; reserve 1 byte for temp 
                                                                ;storage	  
  35  000104                       data      ds.b                   ; reserve 1 byte for SPI data 
                                                                ;storage	  
  36  000105                       red       ds.b                   ; reserve 1 byte for red led PWM
                                                                ; value
  37  000106                       green     ds.b                   ; reserve 1 byte for green led 
                                                                ;PWM value
  38  000107                       blue      ds.b                   ; reserve 1 byte for blue led 
                                                                ;PWM value
  39  000108                       colourstep  ds.b                   ; 1 byte reserved for number of 
                                                                ;PWM value , each 10 bytes is 1 
                                                                ;colour fade	  
  40                         
  41                         
  42                         
  43                         ;COMPILER/STUDIO GENERATED STACK SET UP CODE
  44                                   segment  'rom'
  45                         main.l    
  46                                                          ; initialize SP
  47  008080   AE03FF                        ldw      X,#stack_end
  48  008083   94                            ldw      SP,X
  49                         
  50  008084                                 #ifdef   1             
  51                                                          ; clear RAM0
  52  000000                       ram0_start.b  EQU      $0
  53  0000FF                       ram0_end.b  EQU      $FF
  54  008084   AE0000                        ldw      X,#ram0_start
  55                         clear_ram0.l  
STMicroelectronics list file postprocessor v1.01   (C)2009-2022   Sun May 01 18:30:37 2022
Page 12  Assembler
                                               c:\users\manama\documents\stm8\stm8 programs\stm8sk9822ledstrip\main.asm

  56  008087   7F                            clr      (X)
  57  008088   5C                            incw     X
  58  008089   A300FF                        cpw      X,#ram0_end   
  59  00808C   23F9                          jrule    clear_ram0
  60  00808E                                 #endif   
  61                         
  62  00808E                                 #ifdef   1
  63                                                          ; clear RAM1
  64  000100                       ram1_start.w  EQU      $100
  65  0001FF                       ram1_end.w  EQU      $1FF          
  66  00808E   AE0100                        ldw      X,#ram1_start
  67                         clear_ram1.l  
  68  008091   7F                            clr      (X)
  69  008092   5C                            incw     X
  70  008093   A301FF                        cpw      X,#ram1_end   
  71  008096   23F9                          jrule    clear_ram1
  72  008098                                 #endif   
  73                         
  74                                                          ; clear stack
  75  000200                       stack_start.w  EQU      $200
  76  0003FF                       stack_end.w  EQU      $3FF
  77  008098   AE0200                        ldw      X,#stack_start
  78                         clear_stack.l  
  79  00809B   7F                            clr      (X)
  80  00809C   5C                            incw     X
  81  00809D   A303FF                        cpw      X,#stack_end  
  82  0080A0   23F9                          jrule    clear_stack
  83                                   
  84                                   
  85                                   
  86                         ;MAIN LOOP OR MAIN PROGRAM STARTS HERE
  87                         infinite_loop.l  
  88                         
  89  F42400                       fclk.l    equ      16000000      ; processor speed for delay 
                                                                ;calculation
  90  00001E                       LEDnum    equ      30            ; number of LEDs in the 
                                                                ;SK9822strip
  91                                   
  92  0080A2   350050C6                      mov      CLK_CKDIVR,#$00  ; cpu clock no divisor = 16mhz
  93                                   
  94  0080A6   72145011                      bset     PD_DDR,#2     ;PD2 as output DATA
  95  0080AA   72165011                      bset     PD_DDR,#3     ;PD3 as output CLOCK
  96  0080AE   72145012                      bset     PD_CR1,#2     ;set as fast output pushpull
  97  0080B2   72145013                      bset     PD_CR2,#2     ;set as fast output pushpull
  98  0080B6   72165012                      bset     PD_CR1,#3     ;set as fast output pushpull
  99  0080BA   72165013                      bset     PD_CR2,#3     ;set as fast output pushpull
 100  0080BE   7214500F                      bset     PD_ODR,#2     ;set data high and clock low  
                                                                ;spi mode 0,data PD2, clock PD3
 101                                   
 102                         mainloop:  
 103  0080C2   CD8161                        call     start_frame   ; call start_frame 
                                                                ;routine,SK9822 requires 32 0's 
                                                                ;to start
 104  0080C5   CD82F9                        call     audiframe     ; call audiframe which sends LED
                                                                ; sequence like audi car 
                                                                ;indicator
 105  0080C8   CD83C9                        call     ms100         ; the LEDs stay lit after all 
STMicroelectronics list file postprocessor v1.01   (C)2009-2022   Sun May 01 18:30:37 2022
Page 13  Assembler
                                               c:\users\manama\documents\stm8\stm8 programs\stm8sk9822ledstrip\main.asm

                                                                ;are lit up 1 by 1 ,100ms
 106  0080CB   CD8161                        call     start_frame   ; call start_frame 
                                                                ;routine,SK9822 requires 32 0's 
                                                                ;to start
 107  0080CE   CD8212                        call     frame0        ; transmits 0x00 to all colours 
                                                                ;, led strip has no light
 108  0080D1   CD83C9                        call     ms100         ; LEDCsrip stays dark for 100ms
 109  0080D4   CD8161                        call     start_frame   ; call start frame again to 
                                                                ;begine new sequence
 110  0080D7   CD81DD                        call     redframe      ; call redframe which lights up 
                                                                ;the red LEDs in the strip
 111  0080DA   CD83BD                        call     ms250         ; delay 250ms
 112  0080DD   CD8161                        call     start_frame   ; call start frame again to 
                                                                ;begine new sequence
 113  0080E0   CD8173                        call     greenframe    ; caall greenframe which lights 
                                                                ;up the green LEDs in the strip
 114  0080E3   CD83BD                        call     ms250         ; delay 250ms
 115  0080E6   CD8161                        call     start_frame   ; call start frame again to 
                                                                ;begine new sequence
 116  0080E9   CD81A8                        call     blueframe     ; call blueframe which lights up
                                                                ; the blue LEDs in the strip
 117  0080EC   CD83BD                        call     ms250         ; delay 250ms
 118  0080EF   CD8161                        call     start_frame   ; call start frame again to 
                                                                ;begine new sequence
 119  0080F2   CD8404                        call     mixframe1     ; blue and green si mixed
 120  0080F5   CD83BD                        call     ms250         ; delay 250ms
 121  0080F8   CD8161                        call     start_frame   ; call start frame again to 
                                                                ;begine new sequence
 122  0080FB   CD8439                        call     mixframe2     ; green and red is mixed
 123  0080FE   CD83BD                        call     ms250         ; delay 250ms
 124  008101   CD8161                        call     start_frame   ; call start frame again to 
                                                                ;begine new sequence
 125  008104   CD846E                        call     mixframe3     ; blue and red is mixed
 126  008107   CD83BD                        call     ms250         ; delay 250ms
 127  00810A   CD8161                        call     start_frame   ; call start frame again to 
                                                                ;begine new sequence
 128  00810D   CD8212                        call     frame0        ; transmits 0x00 to all colours 
                                                                ;, led strip has no light
 129  008110   CD83BD                        call     ms250         ; delay 250ms
 130  008113   CD8161                        call     start_frame   ; call start frame again to 
                                                                ;begine new sequence
 131  008116   CD8256                        call     bullet        ; sends a fram animating a 
                                                                ;single led shoots across the 
                                                                ;strip
 132  008119   35640108                      mov      colourstep,#100  ; load coloursteps with 100, 
                                                                ;means 100 different colour / 
                                                                ;fade combinations 
 133                                   pointerX #colour1      ; set pointer X to colour1 array
                                                                ; by calling macro pointerX
 133  00811D   AE84F3                        ldw      X,#colour1
 134  008120   CD84A3                        call     fade          ; call subroutine fade to mix 
                                                                ;and fade colours one by one
 135                                   
 136  008123   209D                          jra      mainloop      ;repeat sequence by branching to
                                                                ; mainloop label
 137                                   
 138                                   
STMicroelectronics list file postprocessor v1.01   (C)2009-2022   Sun May 01 18:30:37 2022
Page 14  Assembler
                                               c:\users\manama\documents\stm8\stm8 programs\stm8sk9822ledstrip\main.asm

 139                         SPI:      
 140  008125   35080100                      mov      buffer1,#8    ; move counter value 8 for 8 
                                                                ;bits
 141                         TX:       
 142  008129   72580104                      sll      data          ; shift left data
 143  00812D   2519                          jrc      hi            ; branch to label hi if carry 
                                                                ;set
 144  00812F   7215500F                      bres     PD_ODR,#2     ; set data low
 145  008133   CD83F8                        call     us1           ; 1us delay
 146  008136   7216500F                      bset     PD_ODR,#3     ; clock high
 147  00813A   CD83F8                        call     us1           ; 1us delay
 148  00813D   7217500F                      bres     PD_ODR,#3     ; clock low
 149  008141   725A0100                      dec      buffer1       ; decrease counter
 150  008145   26E2                          jrne     TX            ; if counter not 0 loop back to 
                                                                ;label TX
 151  008147   81                            ret      
 152                         hi:       
 153  008148   7214500F                      bset     PD_ODR,#2     ; set data high
 154  00814C   CD83F8                        call     us1           ; 1us delay
 155  00814F   7216500F                      bset     PD_ODR,#3     ; clock high
 156  008153   CD83F8                        call     us1           ; 1us delay
 157  008156   7217500F                      bres     PD_ODR,#3     ; clock low
 158  00815A   725A0100                      dec      buffer1       ; decrease counter
 159  00815E   26C9                          jrne     TX            ; if counter not 0 loop back to 
                                                                ;label TX
 160  008160   81                            ret      
 161                                   
 162                         start_frame:  
 163  008161   35040101                      mov      buffer2,#4    ; counter value 4 to transmit 0 
                                                                ;x 4
 164                         st_tx:    
 165  008165   35000104                      mov      data,#0       ; load data with 0 , start frame
                                                                ; has four 0 bytes to be 
                                                                ;transmitted to LEDstip
 166  008169   CD8125                        call     SPI           ; transmit  byte loaded in data
 167  00816C   725A0101                      dec      buffer2       ; decrease count
 168  008170   26F3                          jrne     st_tx         ; if counter not 0 loop back 
                                                                ;till 4 bytes rae transmitted
 169  008172   81                            ret                    ; return to caller
 170                                   
 171                         greenframe:  
 172  008173   351E0101                      mov      buffer2,#30   ; the LED strips I have has 30 
                                                                ;leds ,so counter is 30
 173                         gloop:    
 174  008177   35E00104                      mov      data,#$e0     ; constant value of 0xe0 + PWM 
                                                                ;value of 0b00000 (0) to 0b11111
                                                                ; (31)
 175  00817B   A602                          ld       a,#2          ; load a with PWM value 2. 
                                                                ;arbitarirly chosen value 2 of 
                                                                ;31
 176  00817D   CA0104                        or       a,data        ; OR A with contents in data
 177  008180   C70104                        ld       data,a        ; mov the contents of A (0xe0 
                                                                ;ORed with 2 = 0xe2)
 178  008183   CD8125                        call     SPI           ; transmit data
 179  008186   35000104                      mov      data,#$00     ; BLUE = 0
 180  00818A   CD8125                        call     SPI           ; transmit data
 181  00818D   35FF0104                      mov      data,#$ff     ; GREEN = 256
STMicroelectronics list file postprocessor v1.01   (C)2009-2022   Sun May 01 18:30:37 2022
Page 15  Assembler
                                               c:\users\manama\documents\stm8\stm8 programs\stm8sk9822ledstrip\main.asm

 182  008191   CD8125                        call     SPI           ; transmit data
 183  008194   35000104                      mov      data,#$00     ; BLUE = 0
 184  008198   CD8125                        call     SPI           ; transmit data
 185  00819B   725A0101                      dec      buffer2       ; decrease counter
 186  00819F   26D6                          jrne     gloop         ; call end frame to indicate end
                                                                ; of data stream
 187  0081A1   CD8247                        call     end_frame     ; call end frame to indicate end
                                                                ; of data stream
 188  0081A4   CD83BD                        call     ms250         ; delay 250ms
 189  0081A7   81                            ret                    ; return to caller
 190                                   
 191                         blueframe:  
 192  0081A8   351E0101                      mov      buffer2,#30   ; the LED strips I have has 30 
                                                                ;leds ,so counter is 30
 193                         bloop:    
 194  0081AC   35E00104                      mov      data,#$e0     ; constant value of 0xe0 + PWM 
                                                                ;value of 0b00000 (0) to 0b11111
                                                                ; (31)(decides brightness)
 195  0081B0   A602                          ld       a,#2          ; load a with PWM value 2. 
                                                                ;arbitarirly chosen value 2 of 
                                                                ;31
 196  0081B2   CA0104                        or       a,data        ; OR A with contents in data
 197  0081B5   C70104                        ld       data,a        ; mov the contents of A (0xe0 
                                                                ;ORed with 2 = 0xe2)
 198  0081B8   CD8125                        call     SPI           ; transmit data
 199  0081BB   35FF0104                      mov      data,#$ff     ; BLUE = 0
 200  0081BF   CD8125                        call     SPI           ; transmit data
 201  0081C2   35000104                      mov      data,#$00     ; GREEN = 256
 202  0081C6   CD8125                        call     SPI           ; transmit data
 203  0081C9   35000104                      mov      data,#$00     ; BLUE = 0
 204  0081CD   CD8125                        call     SPI           ; transmit data
 205  0081D0   725A0101                      dec      buffer2       ; decreace counter
 206  0081D4   26D6                          jrne     bloop         ; loop till vlue reaches 0
 207  0081D6   CD8247                        call     end_frame     ; call end frame to indicate end
                                                                ; of data stream
 208  0081D9   CD83BD                        call     ms250         ; delay 250ms
 209  0081DC   81                            ret                    ; return to caller
 210                                   
 211                         redframe:  
 212  0081DD   351E0101                      mov      buffer2,#30   ; the LED strips I have has 30 
                                                                ;leds ,so counter is 30
 213                         rloop:    
 214  0081E1   35E00104                      mov      data,#$e0     ; constant value of 0xe0 + PWM 
                                                                ;value of 0b00000 (0) to 0b11111
                                                                ; (31)(decides brightness)
 215  0081E5   A602                          ld       a,#2          ; load a with PWM value 2. 
                                                                ;arbitarirly chosen value 2 of 
                                                                ;31
 216  0081E7   CA0104                        or       a,data        ; OR A with contents in data
 217  0081EA   C70104                        ld       data,a        ; mov the contents of A (0xe0 
                                                                ;ORed with 2 = 0xe2)
 218  0081ED   CD8125                        call     SPI           ; transmit data
 219  0081F0   35000104                      mov      data,#$00     ; BLUE = 0
 220  0081F4   CD8125                        call     SPI           ; transmit data
 221  0081F7   35000104                      mov      data,#$00     ; GREEN = 256
 222  0081FB   CD8125                        call     SPI           ; transmit data
 223  0081FE   35FF0104                      mov      data,#$ff     ; BLUE = 0
STMicroelectronics list file postprocessor v1.01   (C)2009-2022   Sun May 01 18:30:37 2022
Page 16  Assembler
                                               c:\users\manama\documents\stm8\stm8 programs\stm8sk9822ledstrip\main.asm

 224  008202   CD8125                        call     SPI           ; transmit data
 225  008205   725A0101                      dec      buffer2       ; decreace counter
 226  008209   26D6                          jrne     rloop         ; loop till vlue reaches 0
 227  00820B   CD8247                        call     end_frame     ; call end frame to indicate end
                                                                ; of data stream
 228  00820E   CD83BD                        call     ms250         ; delay 250ms
 229  008211   81                            ret                    ; return to caller
 230                                   
 231                         frame0:   
 232  008212   351E0101                      mov      buffer2,#30   ; the LED strips I have has 30 
                                                                ;leds ,so counter is 30
 233                         loop0:    
 234  008216   35E00104                      mov      data,#$e0     ; constant value of 0xe0 + PWM 
                                                                ;value of 0b00000 (0) to 0b11111
                                                                ; (31)(decides brightness)
 235  00821A   A602                          ld       a,#2          ; load a with PWM value 2. 
                                                                ;arbitarirly chosen value 2 of 
                                                                ;31
 236  00821C   CA0104                        or       a,data        ; OR A with contents in data
 237  00821F   C70104                        ld       data,a        ; mov the contents of A (0xe0 
                                                                ;ORed with 2 = 0xe2)
 238  008222   CD8125                        call     SPI           ; transmit data
 239  008225   35000104                      mov      data,#$00     ; BLUE = 0
 240  008229   CD8125                        call     SPI           ; transmit data
 241  00822C   35000104                      mov      data,#$00     ; GREEN = 256
 242  008230   CD8125                        call     SPI           ; transmit data
 243  008233   35000104                      mov      data,#$00     ; BLUE = 0
 244  008237   CD8125                        call     SPI           ; transmit data
 245  00823A   725A0101                      dec      buffer2       ; decreace counter
 246  00823E   26D6                          jrne     loop0         ; loop till vlue reaches 0
 247  008240   CD8247                        call     end_frame     ; call end frame to indicate end
                                                                ; of data stream
 248  008243   CD83C9                        call     ms100         ; delay 250ms
 249  008246   81                            ret                    ; return to caller
 250                                   
 251                         end_frame:  
 252  008247   35000104                      mov      data,#0       ; The LED strip data stream ends
                                                                ; with end frame with 0's half 
                                                                ;the number of LED's , we have 
                                                                ;30 leds
 253  00824B   CD8125                        call     SPI           ; transmit data 
 254  00824E   35000104                      mov      data,#0       ; load data with 0, 
 255  008252   CD8125                        call     SPI           ; transmit data
 256  008255   81                            ret                    ; return to caller
 257                                   
 258                         bullet:   
 259  008256   351E0101                      mov      buffer2,#LEDnum   ;LEDnum is number of LED (my 
                                                                ;strip has 30)
 260  00825A   35000102                      mov      buffer3,#0    ;first position of LED is 0 
                                                                ;grows to 30
 261                         L1:       
 262  00825E   725D0102                      tnz      buffer3       ;test buffer3 for negative or 
                                                                ;zero, is this sequence start or
                                                                ; not
 263  008262   2715                          jreq     fframe        ;if buffer3 is 0,branch to 
                                                                ;fframe which sets the 1st LED
 264  008264   CD83E0                        call     ms30          ;delay ms250
STMicroelectronics list file postprocessor v1.01   (C)2009-2022   Sun May 01 18:30:37 2022
Page 17  Assembler
                                               c:\users\manama\documents\stm8\stm8 programs\stm8sk9822ledstrip\main.asm

 265  008267   CD8161                        call     start_frame   ;send start frame for SK
 266  00826A   351E0101                      mov      buffer2,#LEDnum   ;LEDnum is number of LED (my 
                                                                ;strip has 30)
 267  00826E   CD82BB                        call     subloop0
 268  008271   A61E                          ld       a,#LEDnum     ;load A with number of LEDs
 269  008273   C10102                        cp       a,buffer3     ;check buffer3 has addressed all
                                                                ; LEDs
 270  008276   26E6                          jrne     L1
 271  008278   81                            ret      
 272                         fframe:   
 273  008279   CD828A                        call     bulletframe
 274  00827C   35010103                      mov      buffer4,#1
 275  008280   CD82BB                        call     subloop0
 276  008283   A61E                          ld       a,#LEDnum     ;load A with number of LEDs
 277  008285   C10102                        cp       a,buffer3     ;check buffer3 has addressed all
                                                                ; LEDs
 278  008288   26D4                          jrne     L1
 279                         bulletframe:  
 280  00828A   35E00104                      mov      data,#$e0     ;constant value of 0xe0 + PWM 
                                                                ;value of 0b00000 (0) to 0b11111
                                                                ; (31)(decides brightness)
 281  00828E   A602                          ld       a,#2          ;load a with PWM value 2. 
                                                                ;arbitarirly chosen value 2 of 
                                                                ;31
 282  008290   CA0104                        or       a,data        ;OR A with contents in data
 283  008293   C70104                        ld       data,a        ;mov the contents of A (0xe0 
                                                                ;ORed with 2 = 0xe2)
 284  008296   CD8125                        call     SPI           ;transmit data
 285  008299   35000104                      mov      data,#$00     ;blue
 286  00829D   CD8125                        call     SPI
 287  0082A0   35FF0104                      mov      data,#$FF     ;green
 288  0082A4   CD8125                        call     SPI
 289  0082A7   357C0104                      mov      data,#$7C     ;red
 290  0082AB   CD8125                        call     SPI
 291  0082AE   725A0101                      dec      buffer2       ; decrease LED counter
 292  0082B2   725C0102                      inc      buffer3       ; increase step counter
 293  0082B6   725F0103                      clr      buffer4
 294  0082BA   81                            ret      
 295                         subloop0:                        ;this loop writes blank frames 
                                                                ;to remaining LEDs
 296  0082BB   35E00104                      mov      data,#$e0     ;constant value of 0xe0 + PWM 
                                                                ;value of 0b00000 (0) to 0b11111
                                                                ; (31)(decides brightness)
 297  0082BF   A602                          ld       a,#2          ;load a with PWM value 2. 
                                                                ;arbitarirly chosen value 2 of 
                                                                ;31
 298  0082C1   CA0104                        or       a,data        ;OR A with contents in data
 299  0082C4   C70104                        ld       data,a        ;mov the contents of A (0xe0 
                                                                ;ORed with 2 = 0xe2)
 300  0082C7   CD8125                        call     SPI           ;transmit data
 301  0082CA   35000104                      mov      data,#$00     ;blue
 302  0082CE   CD8125                        call     SPI
 303  0082D1   35000104                      mov      data,#$00     ;green
 304  0082D5   CD8125                        call     SPI
 305  0082D8   35000104                      mov      data,#$00     ;red
 306  0082DC   CD8125                        call     SPI
 307  0082DF   725C0103                      inc      buffer4       ; increase LED counter
STMicroelectronics list file postprocessor v1.01   (C)2009-2022   Sun May 01 18:30:37 2022
Page 18  Assembler
                                               c:\users\manama\documents\stm8\stm8 programs\stm8sk9822ledstrip\main.asm

 308  0082E3   C60103                        ld       a,buffer4
 309  0082E6   C10102                        cp       a,buffer3     ;compare step counter to A 
                                                                ;copied from buffer4 , if 
                                                                ;buffer4 equals buffer3 its time
                                                                ; to call bullet frame
 310  0082E9   279F                          jreq     bulletframe   ;if comparison is equal call 
                                                                ;bullet frame to light up the 
                                                                ;correct LED
 311  0082EB   725A0101                      dec      buffer2       ; decrease 1 LED
 312  0082EF   26CA                          jrne     subloop0      ; if buffer2/LEDnum not rech 0 
                                                                ;loop to write 29 blank frames
 313  0082F1   CD8247                        call     end_frame
 314  0082F4   725F0103                      clr      buffer4
 315  0082F8   81                            ret      
 316                                   
 317                         audiframe:  
 318  0082F9   351E0102                      mov      buffer3,#LEDnum  ;first position of LED is 0 
                                                                ;grows to 30
 319                         L2:       
 320  0082FD   CD83EC                        call     ms10          ;delay ms250
 321  008300   CD8161                        call     start_frame   ;send start frame for SK
 322  008303   351E0101                      mov      buffer2,#LEDnum   ;LEDnum is number of LED (my 
                                                                ;strip has 30)
 323  008307   CD8315                        call     movframe1
 324  00830A   CD8355                        call     subloop1
 325  00830D   C60102                        ld       a,buffer3     ;load A with number of LEDs
 326  008310   A100                          cp       a,#0          ;check buffer3 has addressed all
                                                                ; LEDs
 327  008312   26E9                          jrne     L2
 328  008314   81                            ret      
 329                         movframe1:  
 330  008315   351E0103                      mov      buffer4,#LEDnum  ;load buffer4 with number of 
                                                                ;LED
 331  008319   C60103                        ld       a,buffer4     ;copy to A buffer4 for 
                                                                ;subtraction (mem-mem not 
                                                                ;allowed)
 332  00831C   C00102                        sub      a,buffer3     ;subtract buffer3 from A
 333  00831F   C70103                        ld       buffer4,a     ;copy result of subtraction from
                                                                ; A to buffer4
 334                         audiloop:  
 335  008322   35E00104                      mov      data,#$e0     ;constant value of 0xe0 + PWM 
                                                                ;value of 0b00000 (0) to 0b11111
                                                                ; (31)(decides brightness)
 336  008326   A602                          ld       a,#2          ;load a with PWM value 2. 
                                                                ;arbitarirly chosen value 2 of 
                                                                ;31
 337  008328   CA0104                        or       a,data        ;OR A with contents in data
 338  00832B   C70104                        ld       data,a        ;mov the contents of A (0xe0 
                                                                ;ORed with 2 = 0xe2)
 339  00832E   CD8125                        call     SPI           ;transmit data
 340  008331   35000104                      mov      data,#$00     ;blue
 341  008335   CD8125                        call     SPI
 342  008338   35640104                      mov      data,#$64     ;green
 343  00833C   CD8125                        call     SPI
 344  00833F   35FF0104                      mov      data,#$ff     ;red
 345  008343   CD8125                        call     SPI
 346  008346   725A0103                      dec      buffer4       ; decrease LED counter
STMicroelectronics list file postprocessor v1.01   (C)2009-2022   Sun May 01 18:30:37 2022
Page 19  Assembler
                                               c:\users\manama\documents\stm8\stm8 programs\stm8sk9822ledstrip\main.asm

 347  00834A   2AD6                          jrpl     audiloop
 348  00834C   725A0102                      dec      buffer3       ; increase step counter
 349  008350   725A0101                      dec      buffer2
 350  008354   81                            ret      
 351                         subloop1:                        ;this loop writes blank frames 
                                                                ;to remaining LEDs
 352  008355   35E00104                      mov      data,#$e0     ;constant value of 0xe0 + PWM 
                                                                ;value of 0b00000 (0) to 0b11111
                                                                ; (31)(decides brightness)
 353  008359   A602                          ld       a,#2          ;load a with PWM value 2. 
                                                                ;arbitarirly chosen value 2 of 
                                                                ;31
 354  00835B   CA0104                        or       a,data        ;OR A with contents in data
 355  00835E   C70104                        ld       data,a        ;mov the contents of A (0xe0 
                                                                ;ORed with 2 = 0xe2)
 356  008361   CD8125                        call     SPI           ;transmit data
 357  008364   35000104                      mov      data,#$00     ;blue
 358  008368   CD8125                        call     SPI
 359  00836B   35000104                      mov      data,#$00     ;green
 360  00836F   CD8125                        call     SPI
 361  008372   35000104                      mov      data,#$00     ;red
 362  008376   CD8125                        call     SPI
 363  008379   725A0101                      dec      buffer2       ; decrease 1 LED
 364  00837D   26D6                          jrne     subloop1      ; if buffer2/LEDnum not rech 0 
                                                                ;loop to write 29 blank frames
 365  00837F   CD8247                        call     end_frame
 366  008382   81                            ret      
 367                         ;;;;;;;;;;;;;;;;;;;;;;;;;;;;;;;;;;;;;;;;;;;;;;;;;;;;;;;;;;;;;;
                               ;;;;;;;;;;;;;;;;;;;;;;;;;;;;;;;;;;;;;;;;;;;;;;;;;;
 368                         ;;;DELAY routines
 369                         ;;;;;;;;;;;;;;;;;;;;;;;;;;;;;;;;;;;;;;;;;;;;;;;;;;;;;;;;;;;;;;
                               ;;;;;;;;;;;;;;;;;;;;;;;;;;;;;;;;;;;;;;;;;;;;;;;;;;;
 370                                   
 371                         delayYx1mS:  
 372  008383   CD838B                        call     delay1mS
 373  008386   905A                          decw     Y
 374  008388   26F9                          jrne     delayYx1mS
 375  00838A   81                            ret      
 376                         delay1mS:  
 377  00838B   9089                          pushw    Y
 378  00838D   90AE14D5                      ldw      Y,#{{fclk/1000}/3}
 379                         delay1mS_01:  
 380  008391   905A                          decw     Y
 381  008393   26FC                          jrne     delay1mS_01
 382  008395   9085                          popw     Y
 383  008397   81                            ret      
 384                         
 385                         
 386                         usdelay:  
 387  008398   905A                          decw     Y
 388  00839A   9089                          pushw    Y
 389  00839C   9085                          popw     Y
 390  00839E   9089                          pushw    Y
 391  0083A0   9085                          popw     Y
 392  0083A2   26F4                          jrne     usdelay
 393  0083A4   81                            ret      
 394                         
STMicroelectronics list file postprocessor v1.01   (C)2009-2022   Sun May 01 18:30:37 2022
Page 20  Assembler
                                               c:\users\manama\documents\stm8\stm8 programs\stm8sk9822ledstrip\main.asm

 395                         ms2000:   
 396                                   millis   #2000
 396  0083A5   9089                          pushw    Y
 396  0083A7   90AE07D0                      ldw      Y,#2000
 396  0083AB   CD8383                        call     delayYx1mS
 396  0083AE   9085                          popw     Y
 397  0083B0   81                            ret      
 398                                   
 399                         ms500:    
 400                                   millis   #500
 400  0083B1   9089                          pushw    Y
 400  0083B3   90AE01F4                      ldw      Y,#500
 400  0083B7   CD8383                        call     delayYx1mS
 400  0083BA   9085                          popw     Y
 401  0083BC   81                            ret      
 402                         ms250:    
 403                                   millis   #250
 403  0083BD   9089                          pushw    Y
 403  0083BF   90AE00FA                      ldw      Y,#250
 403  0083C3   CD8383                        call     delayYx1mS
 403  0083C6   9085                          popw     Y
 404  0083C8   81                            ret      
 405                         ms100:    
 406                                   millis   #250
 406  0083C9   9089                          pushw    Y
 406  0083CB   90AE00FA                      ldw      Y,#250
 406  0083CF   CD8383                        call     delayYx1mS
 406  0083D2   9085                          popw     Y
 407  0083D4   81                            ret      
 408                         ms50:     
 409                                   millis   #50
 409  0083D5   9089                          pushw    Y
 409  0083D7   90AE0032                      ldw      Y,#50
 409  0083DB   CD8383                        call     delayYx1mS
 409  0083DE   9085                          popw     Y
 410  0083E0                       ms30:     
 411                                   millis   #30
 411  0083E0   9089                          pushw    Y
 411  0083E2   90AE001E                      ldw      Y,#30
 411  0083E6   CD8383                        call     delayYx1mS
 411  0083E9   9085                          popw     Y
 412  0083EB   81                            ret      
 413                         ms10:     
 414                                   millis   #10
 414  0083EC   9089                          pushw    Y
 414  0083EE   90AE000A                      ldw      Y,#10
 414  0083F2   CD8383                        call     delayYx1mS
 414  0083F5   9085                          popw     Y
 415  0083F7   81                            ret      
 416                         us1:      
 417                                   micros   #1
 417  0083F8   9089                          pushw    Y
 417  0083FA   90AE0001                      ldw      Y,#1
 417  0083FE   CD8398                        call     usdelay
 417  008401   9085                          popw     Y
 418  008403   81                            ret      
 419                         ;;;;;;;;;;;;;;;;;;;;;;;;;;;;;;;;;;;;;;;;;;;;;;;;;;;;;;;;;;;;;;
STMicroelectronics list file postprocessor v1.01   (C)2009-2022   Sun May 01 18:30:37 2022
Page 21  Assembler
                                               c:\users\manama\documents\stm8\stm8 programs\stm8sk9822ledstrip\main.asm

                               ;;;;;;;;;;;;;;;;;;;;;;;;;;;;;;;;;;;;;;;;;;;;;;;;;;;;;;;;;;;;
 420                         ;;;;;;;;;;;;;;;;;;;;;;;;;;;;;;;;;;;;;;;;;;;;;;;;;;;;;;;;;;;;;;
                               ;;;;;;;;;;;;;;;;;;;;;;;;;;;;;;;;;;;;;;;;;;;;;;;;;;;;;;;;;;;;;;
                               ;;
 421                         
 422                         
 423                         mixframe1:  
 424  008404   351E0101                      mov      buffer2,#30   ; the LED strips I have has 30 
                                                                ;leds ,so counter is 30
 425                         m1loop:   
 426  008408   35E00104                      mov      data,#$e0     ; constant value of 0xe0 + PWM 
                                                                ;value of 0b00000 (0) to 0b11111
                                                                ; (31)(decides brightness)
 427  00840C   A602                          ld       a,#2          ; load a with PWM value 2. 
                                                                ;arbitarirly chosen value 2 of 
                                                                ;31
 428  00840E   CA0104                        or       a,data        ; OR A with contents in data
 429  008411   C70104                        ld       data,a        ; mov the contents of A (0xe0 
                                                                ;ORed with 2 = 0xe2)
 430  008414   CD8125                        call     SPI           ; transmit data
 431  008417   35FF0104                      mov      data,#$ff     ; BLUE = 0
 432  00841B   CD8125                        call     SPI           ; transmit data
 433  00841E   35FF0104                      mov      data,#$ff     ; GREEN = 256
 434  008422   CD8125                        call     SPI           ; transmit data
 435  008425   35000104                      mov      data,#$00     ; BLUE = 0
 436  008429   CD8125                        call     SPI           ; transmit data
 437  00842C   725A0101                      dec      buffer2       ; decreace counter
 438  008430   26D6                          jrne     m1loop        ; loop till vlue reaches 0
 439  008432   CD8247                        call     end_frame     ; call end frame to indicate end
                                                                ; of data stream
 440  008435   CD83BD                        call     ms250         ; delay 250ms
 441  008438   81                            ret                    ; return to caller
 442                                   
 443                         mixframe2:  
 444  008439   351E0101                      mov      buffer2,#30   ; the LED strips I have has 30 
                                                                ;leds ,so counter is 30
 445                         m2loop:   
 446  00843D   35E00104                      mov      data,#$e0     ; constant value of 0xe0 + PWM 
                                                                ;value of 0b00000 (0) to 0b11111
                                                                ; (31)(decides brightness)
 447  008441   A602                          ld       a,#2          ; load a with PWM value 2. 
                                                                ;arbitarirly chosen value 2 of 
                                                                ;31
 448  008443   CA0104                        or       a,data        ; OR A with contents in data
 449  008446   C70104                        ld       data,a        ; mov the contents of A (0xe0 
                                                                ;ORed with 2 = 0xe2)
 450  008449   CD8125                        call     SPI           ; transmit data
 451  00844C   35000104                      mov      data,#$00     ; BLUE = 0
 452  008450   CD8125                        call     SPI           ; transmit data
 453  008453   35FF0104                      mov      data,#$ff     ; GREEN = 256
 454  008457   CD8125                        call     SPI           ; transmit data
 455  00845A   35FF0104                      mov      data,#$ff     ; BLUE = 0
 456  00845E   CD8125                        call     SPI           ; transmit data
 457  008461   725A0101                      dec      buffer2       ; decreace counter
 458  008465   26D6                          jrne     m2loop        ; loop till vlue reaches 0
 459  008467   CD8247                        call     end_frame     ; call end frame to indicate end
                                                                ; of data stream
STMicroelectronics list file postprocessor v1.01   (C)2009-2022   Sun May 01 18:30:37 2022
Page 22  Assembler
                                               c:\users\manama\documents\stm8\stm8 programs\stm8sk9822ledstrip\main.asm

 460  00846A   CD83BD                        call     ms250         ; delay 250ms
 461  00846D   81                            ret                    ; return to caller
 462                         mixframe3:  
 463  00846E   351E0101                      mov      buffer2,#30   ; the LED strips I have has 30 
                                                                ;leds ,so counter is 30
 464                         m3loop:   
 465  008472   35E00104                      mov      data,#$e0     ; constant value of 0xe0 + PWM 
                                                                ;value of 0b00000 (0) to 0b11111
                                                                ; (31)(decides brightness)
 466  008476   A602                          ld       a,#2          ; load a with PWM value 2. 
                                                                ;arbitarirly chosen value 2 of 
                                                                ;31
 467  008478   CA0104                        or       a,data        ; OR A with contents in data
 468  00847B   C70104                        ld       data,a        ; mov the contents of A (0xe0 
                                                                ;ORed with 2 = 0xe2)
 469  00847E   CD8125                        call     SPI           ; transmit data
 470  008481   35FF0104                      mov      data,#$ff     ; BLUE = 0
 471  008485   CD8125                        call     SPI           ; transmit data
 472  008488   35000104                      mov      data,#$00     ; GREEN = 256
 473  00848C   CD8125                        call     SPI           ; transmit data
 474  00848F   35FF0104                      mov      data,#$ff     ; BLUE = 0
 475  008493   CD8125                        call     SPI           ; transmit data
 476  008496   725A0101                      dec      buffer2       ; decreace counter
 477  00849A   26D6                          jrne     m3loop        ; loop till vlue reaches 0
 478  00849C   CD8247                        call     end_frame     ; call end frame to indicate end
                                                                ; of data stream
 479  00849F   CD83BD                        call     ms250         ; delay 250ms
 480  0084A2   81                            ret                    ; return to caller	
 481                         ;;;;;;;;;;;;;;;;;;;;;;;;;;;;;;;;;;;;;;;;;;;;;;;;;;;;;;;;;;;;;;
                               ;;;;;;;;;;;;;;;;;;;;;;;;;;;;;;;;;;;;;;;;;;;;;;;;;;;;;
 482                         ;;;;;;;;;;;;;;;;;;;;;;;;;;;;;;;;;;;;;;;;;;;;;;;;;;;;;;;;;;;;;;
                               ;;;;;;;;;;;;;;;;;;;;;;;;;;;;;;;;;;;;;;;;;;;;;;;;;;;;;
 483                         
 484                         
 485                         fade:                            ; this routine loads different 
                                                                ;values into LED frame to create
                                                                ; fade effect
 486  0084A3   CD8161                        call     start_frame   ;atart frame to initialize LED 
                                                                ;data acceptance
 487  0084A6   351E0101                      mov      buffer2,#30   ; the LED strips I have has 30 
                                                                ;leds ,so counter is 30
 488  0084AA   F6                            ld       a,(X)         ; pointer X set in main loop , 
                                                                ;load to A from address pointed 
                                                                ;by Xpointer
 489  0084AB   C70107                        ld       blue,a        ; first value in the array is 
                                                                ;blue PWM/brightness value
 490  0084AE   5C                            incw     X             ; increase pointer X
 491  0084AF   F6                            ld       a,(X)         ; pointer X set in main loop , 
                                                                ;load to A from address pointed 
                                                                ;by Xpointer			
 492  0084B0   C70106                        ld       green,a       ; 2nd value in the array is 
                                                                ;green PWM/brightness value
 493  0084B3   5C                            incw     X             ; increase pointer X
 494  0084B4   F6                            ld       a,(X)         ; pointer X set in main loop , 
                                                                ;load to A from address pointed 
                                                                ;by Xpointer
 495  0084B5   C70105                        ld       red,a         ; 3rd value in the array is blue
STMicroelectronics list file postprocessor v1.01   (C)2009-2022   Sun May 01 18:30:37 2022
Page 23  Assembler
                                               c:\users\manama\documents\stm8\stm8 programs\stm8sk9822ledstrip\main.asm

                                                                ; PWM/brightness value
 496  0084B8   5C                            incw     X             ; increase pointer X for the 
                                                                ;next iteration through 
                                                                ;routine,total 100
 497                         floop:    
 498  0084B9   35E00104                      mov      data,#$e0     ; constant value of 0xe0 + PWM 
                                                                ;value of 0b00000 (0) to 0b11111
                                                                ; (31)
 499  0084BD   A602                          ld       a,#2          ; load a with PWM value 2. 
                                                                ;arbitarirly chosen value 2 of 
                                                                ;31(decides brightness)
 500  0084BF   CA0104                        or       a,data        ; OR A with contents in data
 501  0084C2   C70104                        ld       data,a        ; mov the contents of A (0xe0 
                                                                ;ORed with 2 = 0xe2)
 502  0084C5   CD8125                        call     SPI           ; transmit data
 503  0084C8   5501070104                    mov      data,blue     ; BLUE = array value0
 504  0084CD   CD8125                        call     SPI           ; transmit data
 505  0084D0   5501060104                    mov      data,green    ; GREEN = array value
 506  0084D5   CD8125                        call     SPI           ; transmit data
 507  0084D8   5501050104                    mov      data,red      ; BLUE = array value
 508  0084DD   CD8125                        call     SPI           ; transmit data
 509  0084E0   725A0101                      dec      buffer2       ; decreace counter
 510  0084E4   26D3                          jrne     floop         ; loop till vlue reaches 0
 511  0084E6   CD8247                        call     end_frame     ; call end frame to indicate end
                                                                ; of data stream
 512  0084E9   CD83D5                        call     ms50          ; delay 50ms for LED to display 
                                                                ;current colour combination
 513  0084EC   725A0108                      dec      colourstep    ; decrease colour step , each 
                                                                ;step is 3 values in the colour 
                                                                ;array below from colour1 to 
                                                                ;colour20
 514  0084F0   26B1                          jrne     fade          ; loop through fade routine till
                                                                ; all array elements are loaded 
                                                                ;to LED
 515  0084F2   81                            ret                    ; return to caller
 516                                   
 517                                   
 518                                   
 519                                   
 520                                   
 521                                   
 522                                   
 523                                   
 524                                   
 525                                   
 526  0084F3   1900003200004B00    
 526  0084FB   006400007D0000      colour1   dc.B     25,0,0,50,0,0,75,0,0,100,0,0,125,0,0,
 527  008502   960000AF0000C800    
 527  00850A   00E60000FF0000      colour2   dc.B     150,0,0,175,0,0,200,0,0,230,0,0,255,0,0
 528                         
 529  008511   FF1900FF3200FF4B    
 529  008519   00FF6400FF7D00      colour3   dc.B     255,25,0,255,50,0,255,75,0,255,100,0,255,125,0
 530  008520   FF9600FFAF00FFC8    
 530  008528   00FFE600FFFF00      colour4   dc.B     255,150,0,255,175,0,255,200,0,255,230,0,255,255,0
 531                         
 532  00852F   E6FF00C8FF00AFFF    
 532  008537   0096FF007DFF00      colour5   dc.B     230,255,0,200,255,0,175,255,0,150,255,0,125,255,0
STMicroelectronics list file postprocessor v1.01   (C)2009-2022   Sun May 01 18:30:37 2022
Page 24  Assembler
                                               c:\users\manama\documents\stm8\stm8 programs\stm8sk9822ledstrip\main.asm

 533  00853E   64FF004BFF0032FF    
 533  008546   0019FF0000FF00      colour6   dc.B     100,255,0,75,255,0,50,255,0,25,255,0,0,255,0
 534                         
 535  00854D   00FF1900FF3200FF    
 535  008555   4B00FF6400FF7D      colour7   dc.B     0,255,25,0,255,50,0,255,75,0,255,100,0,255,125
 536  00855C   00FF9600FFAF00FF    
 536  008564   C800FFE600FFFF      colour8   dc.B     0,255,150,0,255,175,0,255,200,0,255,230,0,255,255
 537                         
 538  00856B   00E6FF00C83200AF    
 538  008573   FF0096FF007DFF      colour9   dc.B     0,230,255,0,200,50,0,175,255,0,150,255,0,125,255
 539  00857A   0064FF004BFF0032    
 539  008582   FF0019FF0000FF      colour10  dc.B     0,100,255,0,75,255,0,50,255,0,25,255,0,0,255
 540                         
 541  008589   1900FF3200FF4B00    
 541  008591   FF6400FF7D00FF      colour11  dc.B     25,0,255,50,0,255,75,0,255,100,0,255,125,0,255
 542  008598   9600FFAF00FFC800    
 542  0085A0   FFE600FFFF00FF      colour12  dc.B     150,0,255,175,0,255,200,0,255,230,0,255,255,0,255
 543                         
 544  0085A7   FF19E1FF32E1FF4B    
 544  0085AF   E1FF64E1FF7DE1      colour13  dc.B     255,25,225,255,50,225,255,75,225,255,100,225,255,125,225
 545  0085B6   FF96E1FFAFE1FFC8    
 545  0085BE   E1FFE6E1FFFFE1      colour14  dc.B     255,150,225,255,175,225,255,200,225,255,230,225,255,255,225
 546                         
 547  0085C5   FFFFE6FFFFC8FFFF    
 547  0085CD   AFFFFF96FFFF7D      colour15  dc.B     255,255,230,255,255,200,255,255,175,255,255,150,255,255,125
 548  0085D4   FFFF64FFFF4BFFFF    
 548  0085DC   32FFFF19FFFF00      colour16  dc.B     255,255,100,255,255,75,255,255,50,255,255,25,255,255,0
 549                         
 550  0085E3   FFE600FFC800FFAF    
 550  0085EB   00FF9600FF7D00      colour17  dc.B     255,230,0,255,200,0,255,175,0,255,150,0,255,125,0,
 551  0085F2   FF6400FF4B00FF32    
 551  0085FA   00FF1900FF0000      colour18  dc.B     255,100,0,255,75,0,255,50,0,255,25,0,255,0,0
 552                         
 553  008601   E60000C80000AF00    
 553  008609   009600007D0000      colour19  dc.B     230,0,0,200,0,0,175,0,0,150,0,0,125,0,0
 554  008610   6400004B00003200    
 554  008618   00190000000000      colour20  dc.B     100,0,0,75,0,0,50,0,0,25,0,0,0,0,0
 555                         
 556                         
 557  00861F   19324B647D96AFC8    
 557  008627   E6FF                pwmup     dc.B     25,50,75,100,125,150,175,200,230,255
 558  008629   FFE6C8AF967D644B    
 558  008631   3219                pwmdown   dc.B     255,230,200,175,150,125,100,75,50,25
 559                                   
 560                                   
 561                                   
 562                                   
 563                                   
 564                                   
 565                                   
 566                                   
 567                                   
 568                                   
 569                                   
 570                                   
 571                         ;INTERRUPT VECTOR TABLE
 572  008633                                 interrupt NonHandledInterrupt
STMicroelectronics list file postprocessor v1.01   (C)2009-2022   Sun May 01 18:30:37 2022
Page 25  Assembler
                                               c:\users\manama\documents\stm8\stm8 programs\stm8sk9822ledstrip\main.asm

 573                         NonHandledInterrupt.l  
 574  008633   80                            iret     
 575                         
 576                                   segment  'vectit'
 577  008000   82008080                      dc.l     {$82000000+main}  ; reset
 578  008004   82008633                      dc.l     {$82000000+NonHandledInterrupt}  ; trap
 579  008008   82008633                      dc.l     {$82000000+NonHandledInterrupt}  ; irq0
 580  00800C   82008633                      dc.l     {$82000000+NonHandledInterrupt}  ; irq1
 581  008010   82008633                      dc.l     {$82000000+NonHandledInterrupt}  ; irq2
 582  008014   82008633                      dc.l     {$82000000+NonHandledInterrupt}  ; irq3
 583  008018   82008633                      dc.l     {$82000000+NonHandledInterrupt}  ; irq4
 584  00801C   82008633                      dc.l     {$82000000+NonHandledInterrupt}  ; irq5
 585  008020   82008633                      dc.l     {$82000000+NonHandledInterrupt}  ; irq6
 586  008024   82008633                      dc.l     {$82000000+NonHandledInterrupt}  ; irq7
 587  008028   82008633                      dc.l     {$82000000+NonHandledInterrupt}  ; irq8
 588  00802C   82008633                      dc.l     {$82000000+NonHandledInterrupt}  ; irq9
 589  008030   82008633                      dc.l     {$82000000+NonHandledInterrupt}  ; irq10
 590  008034   82008633                      dc.l     {$82000000+NonHandledInterrupt}  ; irq11
 591  008038   82008633                      dc.l     {$82000000+NonHandledInterrupt}  ; irq12
 592  00803C   82008633                      dc.l     {$82000000+NonHandledInterrupt}  ; irq13
 593  008040   82008633                      dc.l     {$82000000+NonHandledInterrupt}  ; irq14
 594  008044   82008633                      dc.l     {$82000000+NonHandledInterrupt}  ; irq15
 595  008048   82008633                      dc.l     {$82000000+NonHandledInterrupt}  ; irq16
 596  00804C   82008633                      dc.l     {$82000000+NonHandledInterrupt}  ; irq17
 597  008050   82008633                      dc.l     {$82000000+NonHandledInterrupt}  ; irq18
 598  008054   82008633                      dc.l     {$82000000+NonHandledInterrupt}  ; irq19
 599  008058   82008633                      dc.l     {$82000000+NonHandledInterrupt}  ; irq20
 600  00805C   82008633                      dc.l     {$82000000+NonHandledInterrupt}  ; irq21
 601  008060   82008633                      dc.l     {$82000000+NonHandledInterrupt}  ; irq22
 602  008064   82008633                      dc.l     {$82000000+NonHandledInterrupt}  ; irq23
 603  008068   82008633                      dc.l     {$82000000+NonHandledInterrupt}  ; irq24
 604  00806C   82008633                      dc.l     {$82000000+NonHandledInterrupt}  ; irq25
 605  008070   82008633                      dc.l     {$82000000+NonHandledInterrupt}  ; irq26
 606  008074   82008633                      dc.l     {$82000000+NonHandledInterrupt}  ; irq27
 607  008078   82008633                      dc.l     {$82000000+NonHandledInterrupt}  ; irq28
 608  00807C   82008633                      dc.l     {$82000000+NonHandledInterrupt}  ; irq29
 609                         
 610  008080                                 end      
STMicroelectronics list file postprocessor v1.01   (C)2009-2022   Sun May 01 18:30:37 2022
Page 26  Assembler
                                               c:\users\manama\documents\stm8\stm8 programs\stm8sk9822ledstrip\main.asm

Symbol Name                       Value     Call       Type  Scope      Rel.  Line  Privacy  Segment   Size  Bytes File

AWU_CSR                               50F0         no  WORD  Internal   ABS    144  private  data         0     0  c:\program files (x86)\stmicroelectronics\st_toolset\asm\include\STM8S103F.inc
AWU_APR                               50F1         no  WORD  Internal   ABS    146  private  data         0     0  c:\program files (x86)\stmicroelectronics\st_toolset\asm\include\STM8S103F.inc
AWU_TBR                               50F2         no  WORD  Internal   ABS    148  private  data         0     0  c:\program files (x86)\stmicroelectronics\st_toolset\asm\include\STM8S103F.inc
ADC_DB0RH                             53E0         no  WORD  Internal   ABS    362  private  data         0     0  c:\program files (x86)\stmicroelectronics\st_toolset\asm\include\STM8S103F.inc
ADC_DB0RL                             53E1         no  WORD  Internal   ABS    364  private  data         0     0  c:\program files (x86)\stmicroelectronics\st_toolset\asm\include\STM8S103F.inc
ADC_DB1RH                             53E2         no  WORD  Internal   ABS    366  private  data         0     0  c:\program files (x86)\stmicroelectronics\st_toolset\asm\include\STM8S103F.inc
ADC_DB1RL                             53E3         no  WORD  Internal   ABS    368  private  data         0     0  c:\program files (x86)\stmicroelectronics\st_toolset\asm\include\STM8S103F.inc
ADC_DB2RH                             53E4         no  WORD  Internal   ABS    370  private  data         0     0  c:\program files (x86)\stmicroelectronics\st_toolset\asm\include\STM8S103F.inc
ADC_DB2RL                             53E5         no  WORD  Internal   ABS    372  private  data         0     0  c:\program files (x86)\stmicroelectronics\st_toolset\asm\include\STM8S103F.inc
ADC_DB3RH                             53E6         no  WORD  Internal   ABS    374  private  data         0     0  c:\program files (x86)\stmicroelectronics\st_toolset\asm\include\STM8S103F.inc
ADC_DB3RL                             53E7         no  WORD  Internal   ABS    376  private  data         0     0  c:\program files (x86)\stmicroelectronics\st_toolset\asm\include\STM8S103F.inc
ADC_DB4RH                             53E8         no  WORD  Internal   ABS    378  private  data         0     0  c:\program files (x86)\stmicroelectronics\st_toolset\asm\include\STM8S103F.inc
ADC_DB4RL                             53E9         no  WORD  Internal   ABS    380  private  data         0     0  c:\program files (x86)\stmicroelectronics\st_toolset\asm\include\STM8S103F.inc
ADC_DB5RH                             53EA         no  WORD  Internal   ABS    382  private  data         0     0  c:\program files (x86)\stmicroelectronics\st_toolset\asm\include\STM8S103F.inc
ADC_DB5RL                             53EB         no  WORD  Internal   ABS    384  private  data         0     0  c:\program files (x86)\stmicroelectronics\st_toolset\asm\include\STM8S103F.inc
ADC_DB6RH                             53EC         no  WORD  Internal   ABS    386  private  data         0     0  c:\program files (x86)\stmicroelectronics\st_toolset\asm\include\STM8S103F.inc
ADC_DB6RL                             53ED         no  WORD  Internal   ABS    388  private  data         0     0  c:\program files (x86)\stmicroelectronics\st_toolset\asm\include\STM8S103F.inc
ADC_DB7RH                             53EE         no  WORD  Internal   ABS    390  private  data         0     0  c:\program files (x86)\stmicroelectronics\st_toolset\asm\include\STM8S103F.inc
ADC_DB7RL                             53EF         no  WORD  Internal   ABS    392  private  data         0     0  c:\program files (x86)\stmicroelectronics\st_toolset\asm\include\STM8S103F.inc
ADC_DB8RH                             53F0         no  WORD  Internal   ABS    394  private  data         0     0  c:\program files (x86)\stmicroelectronics\st_toolset\asm\include\STM8S103F.inc
ADC_DB8RL                             53F1         no  WORD  Internal   ABS    396  private  data         0     0  c:\program files (x86)\stmicroelectronics\st_toolset\asm\include\STM8S103F.inc
ADC_DB9RH                             53F2         no  WORD  Internal   ABS    398  private  data         0     0  c:\program files (x86)\stmicroelectronics\st_toolset\asm\include\STM8S103F.inc
ADC_DB9RL                             53F3         no  WORD  Internal   ABS    400  private  data         0     0  c:\program files (x86)\stmicroelectronics\st_toolset\asm\include\STM8S103F.inc
ADC_CSR                               5400         no  WORD  Internal   ABS    402  private  data         0     0  c:\program files (x86)\stmicroelectronics\st_toolset\asm\include\STM8S103F.inc
ADC_CR1                               5401         no  WORD  Internal   ABS    404  private  data         0     0  c:\program files (x86)\stmicroelectronics\st_toolset\asm\include\STM8S103F.inc
ADC_CR2                               5402         no  WORD  Internal   ABS    406  private  data         0     0  c:\program files (x86)\stmicroelectronics\st_toolset\asm\include\STM8S103F.inc
ADC_CR3                               5403         no  WORD  Internal   ABS    408  private  data         0     0  c:\program files (x86)\stmicroelectronics\st_toolset\asm\include\STM8S103F.inc
ADC_DRH                               5404         no  WORD  Internal   ABS    410  private  data         0     0  c:\program files (x86)\stmicroelectronics\st_toolset\asm\include\STM8S103F.inc
ADC_DRL                               5405         no  WORD  Internal   ABS    412  private  data         0     0  c:\program files (x86)\stmicroelectronics\st_toolset\asm\include\STM8S103F.inc
ADC_TDRH                              5406         no  WORD  Internal   ABS    414  private  data         0     0  c:\program files (x86)\stmicroelectronics\st_toolset\asm\include\STM8S103F.inc
ADC_TDRL                              5407         no  WORD  Internal   ABS    416  private  data         0     0  c:\program files (x86)\stmicroelectronics\st_toolset\asm\include\STM8S103F.inc
ADC_HTRH                              5408         no  WORD  Internal   ABS    418  private  data         0     0  c:\program files (x86)\stmicroelectronics\st_toolset\asm\include\STM8S103F.inc
ADC_HTRL                              5409         no  WORD  Internal   ABS    420  private  data         0     0  c:\program files (x86)\stmicroelectronics\st_toolset\asm\include\STM8S103F.inc
ADC_LTRH                              540A         no  WORD  Internal   ABS    422  private  data         0     0  c:\program files (x86)\stmicroelectronics\st_toolset\asm\include\STM8S103F.inc
ADC_LTRL                              540B         no  WORD  Internal   ABS    424  private  data         0     0  c:\program files (x86)\stmicroelectronics\st_toolset\asm\include\STM8S103F.inc
ADC_AWSRH                             540C         no  WORD  Internal   ABS    426  private  data         0     0  c:\program files (x86)\stmicroelectronics\st_toolset\asm\include\STM8S103F.inc
ADC_AWSRL                             540D         no  WORD  Internal   ABS    428  private  data         0     0  c:\program files (x86)\stmicroelectronics\st_toolset\asm\include\STM8S103F.inc
ADC_AWCRH                             540E         no  WORD  Internal   ABS    430  private  data         0     0  c:\program files (x86)\stmicroelectronics\st_toolset\asm\include\STM8S103F.inc
ADC_AWCRL                             540F         no  WORD  Internal   ABS    432  private  data         0     0  c:\program files (x86)\stmicroelectronics\st_toolset\asm\include\STM8S103F.inc

BEEP_CSR                              50F3         no  WORD  Internal   ABS    153  private  data         0     0  c:\program files (x86)\stmicroelectronics\st_toolset\asm\include\STM8S103F.inc

CLK_ICKR                              50C0         no  WORD  Internal   ABS     99  private  data         0     0  c:\program files (x86)\stmicroelectronics\st_toolset\asm\include\STM8S103F.inc
CLK_ECKR                              50C1         no  WORD  Internal   ABS    101  private  data         0     0  c:\program files (x86)\stmicroelectronics\st_toolset\asm\include\STM8S103F.inc
CLK_CMSR                              50C3         no  WORD  Internal   ABS    103  private  data         0     0  c:\program files (x86)\stmicroelectronics\st_toolset\asm\include\STM8S103F.inc
CLK_SWR                               50C4         no  WORD  Internal   ABS    105  private  data         0     0  c:\program files (x86)\stmicroelectronics\st_toolset\asm\include\STM8S103F.inc
CLK_SWCR                              50C5         no  WORD  Internal   ABS    107  private  data         0     0  c:\program files (x86)\stmicroelectronics\st_toolset\asm\include\STM8S103F.inc
CLK_CKDIVR                            50C6         no  WORD  Internal   ABS    109  private  data         0     0  c:\program files (x86)\stmicroelectronics\st_toolset\asm\include\STM8S103F.inc
CLK_PCKENR1                           50C7         no  WORD  Internal   ABS    111  private  data         0     0  c:\program files (x86)\stmicroelectronics\st_toolset\asm\include\STM8S103F.inc
CLK_CSSR                              50C8         no  WORD  Internal   ABS    113  private  data         0     0  c:\program files (x86)\stmicroelectronics\st_toolset\asm\include\STM8S103F.inc
CLK_CCOR                              50C9         no  WORD  Internal   ABS    115  private  data         0     0  c:\program files (x86)\stmicroelectronics\st_toolset\asm\include\STM8S103F.inc
CLK_PCKENR2                           50CA         no  WORD  Internal   ABS    117  private  data         0     0  c:\program files (x86)\stmicroelectronics\st_toolset\asm\include\STM8S103F.inc
CLK_CANCCR                            50CB         no  WORD  Internal   ABS    119  private  data         0     0  c:\program files (x86)\stmicroelectronics\st_toolset\asm\include\STM8S103F.inc
CLK_HSITRIMR                          50CC         no  WORD  Internal   ABS    121  private  data         0     0  c:\program files (x86)\stmicroelectronics\st_toolset\asm\include\STM8S103F.inc
CLK_SWIMCCR                           50CD         no  WORD  Internal   ABS    123  private  data         0     0  c:\program files (x86)\stmicroelectronics\st_toolset\asm\include\STM8S103F.inc
STMicroelectronics list file postprocessor v1.01   (C)2009-2022   Sun May 01 18:30:37 2022
Page 27  Assembler
                                               c:\users\manama\documents\stm8\stm8 programs\stm8sk9822ledstrip\main.asm

CFG_GCR                               7F60         no  WORD  Internal   ABS    437  private  data         0     0  c:\program files (x86)\stmicroelectronics\st_toolset\asm\include\STM8S103F.inc

EXTI_CR1                              50A0         no  WORD  Internal   ABS     87  private  data         0     0  c:\program files (x86)\stmicroelectronics\st_toolset\asm\include\STM8S103F.inc
EXTI_CR2                              50A1         no  WORD  Internal   ABS     89  private  data         0     0  c:\program files (x86)\stmicroelectronics\st_toolset\asm\include\STM8S103F.inc

FLASH_CR1                             505A         no  WORD  Internal   ABS     68  private  data         0     0  c:\program files (x86)\stmicroelectronics\st_toolset\asm\include\STM8S103F.inc
FLASH_CR2                             505B         no  WORD  Internal   ABS     70  private  data         0     0  c:\program files (x86)\stmicroelectronics\st_toolset\asm\include\STM8S103F.inc
FLASH_NCR2                            505C         no  WORD  Internal   ABS     72  private  data         0     0  c:\program files (x86)\stmicroelectronics\st_toolset\asm\include\STM8S103F.inc
FLASH_FPR                             505D         no  WORD  Internal   ABS     74  private  data         0     0  c:\program files (x86)\stmicroelectronics\st_toolset\asm\include\STM8S103F.inc
FLASH_NFPR                            505E         no  WORD  Internal   ABS     76  private  data         0     0  c:\program files (x86)\stmicroelectronics\st_toolset\asm\include\STM8S103F.inc
FLASH_IAPSR                           505F         no  WORD  Internal   ABS     78  private  data         0     0  c:\program files (x86)\stmicroelectronics\st_toolset\asm\include\STM8S103F.inc
FLASH_PUKR                            5062         no  WORD  Internal   ABS     80  private  data         0     0  c:\program files (x86)\stmicroelectronics\st_toolset\asm\include\STM8S103F.inc
FLASH_DUKR                            5064         no  WORD  Internal   ABS     82  private  data         0     0  c:\program files (x86)\stmicroelectronics\st_toolset\asm\include\STM8S103F.inc

IWDG_KR                               50E0         no  WORD  Internal   ABS    135  private  data         0     0  c:\program files (x86)\stmicroelectronics\st_toolset\asm\include\STM8S103F.inc
IWDG_PR                               50E1         no  WORD  Internal   ABS    137  private  data         0     0  c:\program files (x86)\stmicroelectronics\st_toolset\asm\include\STM8S103F.inc
IWDG_RLR                              50E2         no  WORD  Internal   ABS    139  private  data         0     0  c:\program files (x86)\stmicroelectronics\st_toolset\asm\include\STM8S103F.inc
I2C_CR1                               5210         no  WORD  Internal   ABS    177  private  data         0     0  c:\program files (x86)\stmicroelectronics\st_toolset\asm\include\STM8S103F.inc
I2C_CR2                               5211         no  WORD  Internal   ABS    179  private  data         0     0  c:\program files (x86)\stmicroelectronics\st_toolset\asm\include\STM8S103F.inc
I2C_FREQR                             5212         no  WORD  Internal   ABS    181  private  data         0     0  c:\program files (x86)\stmicroelectronics\st_toolset\asm\include\STM8S103F.inc
I2C_OARL                              5213         no  WORD  Internal   ABS    183  private  data         0     0  c:\program files (x86)\stmicroelectronics\st_toolset\asm\include\STM8S103F.inc
I2C_OARH                              5214         no  WORD  Internal   ABS    185  private  data         0     0  c:\program files (x86)\stmicroelectronics\st_toolset\asm\include\STM8S103F.inc
I2C_DR                                5216         no  WORD  Internal   ABS    187  private  data         0     0  c:\program files (x86)\stmicroelectronics\st_toolset\asm\include\STM8S103F.inc
I2C_SR1                               5217         no  WORD  Internal   ABS    189  private  data         0     0  c:\program files (x86)\stmicroelectronics\st_toolset\asm\include\STM8S103F.inc
I2C_SR2                               5218         no  WORD  Internal   ABS    191  private  data         0     0  c:\program files (x86)\stmicroelectronics\st_toolset\asm\include\STM8S103F.inc
I2C_SR3                               5219         no  WORD  Internal   ABS    193  private  data         0     0  c:\program files (x86)\stmicroelectronics\st_toolset\asm\include\STM8S103F.inc
I2C_ITR                               521A         no  WORD  Internal   ABS    195  private  data         0     0  c:\program files (x86)\stmicroelectronics\st_toolset\asm\include\STM8S103F.inc
I2C_CCRL                              521B         no  WORD  Internal   ABS    197  private  data         0     0  c:\program files (x86)\stmicroelectronics\st_toolset\asm\include\STM8S103F.inc
I2C_CCRH                              521C         no  WORD  Internal   ABS    199  private  data         0     0  c:\program files (x86)\stmicroelectronics\st_toolset\asm\include\STM8S103F.inc
I2C_TRISER                            521D         no  WORD  Internal   ABS    201  private  data         0     0  c:\program files (x86)\stmicroelectronics\st_toolset\asm\include\STM8S103F.inc
I2C_PECR                              521E         no  WORD  Internal   ABS    203  private  data         0     0  c:\program files (x86)\stmicroelectronics\st_toolset\asm\include\STM8S103F.inc
ITC_SPR1                              7F70         no  WORD  Internal   ABS    442  private  data         0     0  c:\program files (x86)\stmicroelectronics\st_toolset\asm\include\STM8S103F.inc
ITC_SPR2                              7F71         no  WORD  Internal   ABS    444  private  data         0     0  c:\program files (x86)\stmicroelectronics\st_toolset\asm\include\STM8S103F.inc
ITC_SPR3                              7F72         no  WORD  Internal   ABS    446  private  data         0     0  c:\program files (x86)\stmicroelectronics\st_toolset\asm\include\STM8S103F.inc
ITC_SPR4                              7F73         no  WORD  Internal   ABS    448  private  data         0     0  c:\program files (x86)\stmicroelectronics\st_toolset\asm\include\STM8S103F.inc
ITC_SPR5                              7F74         no  WORD  Internal   ABS    450  private  data         0     0  c:\program files (x86)\stmicroelectronics\st_toolset\asm\include\STM8S103F.inc
ITC_SPR6                              7F75         no  WORD  Internal   ABS    452  private  data         0     0  c:\program files (x86)\stmicroelectronics\st_toolset\asm\include\STM8S103F.inc
ITC_SPR7                              7F76         no  WORD  Internal   ABS    454  private  data         0     0  c:\program files (x86)\stmicroelectronics\st_toolset\asm\include\STM8S103F.inc

LEDnum                                001E         no  WORD  Internal   ABS     90  private  textdata     0     0  -
L1                                    825E         no  WORD  Internal   ABS    261  private  textdata    27     0  -
L2                                    82FD         no  WORD  Internal   ABS    319  private  textdata    24     0  -

NonHandledInterrupt               00008633  interrupt  LONG  Internal   ABS    573  private  textdata     1     0  -

PA_ODR                                5000         no  WORD  Internal   ABS     16  private  data         0     0  c:\program files (x86)\stmicroelectronics\st_toolset\asm\include\STM8S103F.inc
PA_IDR                                5001         no  WORD  Internal   ABS     18  private  data         0     0  c:\program files (x86)\stmicroelectronics\st_toolset\asm\include\STM8S103F.inc
PA_DDR                                5002         no  WORD  Internal   ABS     20  private  data         0     0  c:\program files (x86)\stmicroelectronics\st_toolset\asm\include\STM8S103F.inc
PA_CR1                                5003         no  WORD  Internal   ABS     22  private  data         0     0  c:\program files (x86)\stmicroelectronics\st_toolset\asm\include\STM8S103F.inc
PA_CR2                                5004         no  WORD  Internal   ABS     24  private  data         0     0  c:\program files (x86)\stmicroelectronics\st_toolset\asm\include\STM8S103F.inc
PB_ODR                                5005         no  WORD  Internal   ABS     29  private  data         0     0  c:\program files (x86)\stmicroelectronics\st_toolset\asm\include\STM8S103F.inc
PB_IDR                                5006         no  WORD  Internal   ABS     31  private  data         0     0  c:\program files (x86)\stmicroelectronics\st_toolset\asm\include\STM8S103F.inc
PB_DDR                                5007         no  WORD  Internal   ABS     33  private  data         0     0  c:\program files (x86)\stmicroelectronics\st_toolset\asm\include\STM8S103F.inc
PB_CR1                                5008         no  WORD  Internal   ABS     35  private  data         0     0  c:\program files (x86)\stmicroelectronics\st_toolset\asm\include\STM8S103F.inc
PB_CR2                                5009         no  WORD  Internal   ABS     37  private  data         0     0  c:\program files (x86)\stmicroelectronics\st_toolset\asm\include\STM8S103F.inc
PC_ODR                                500A         no  WORD  Internal   ABS     42  private  data         0     0  c:\program files (x86)\stmicroelectronics\st_toolset\asm\include\STM8S103F.inc
PC_IDR                                500B         no  WORD  Internal   ABS     44  private  data         0     0  c:\program files (x86)\stmicroelectronics\st_toolset\asm\include\STM8S103F.inc
STMicroelectronics list file postprocessor v1.01   (C)2009-2022   Sun May 01 18:30:37 2022
Page 28  Assembler
                                               c:\users\manama\documents\stm8\stm8 programs\stm8sk9822ledstrip\main.asm

PC_DDR                                500C         no  WORD  Internal   ABS     46  private  data         0     0  c:\program files (x86)\stmicroelectronics\st_toolset\asm\include\STM8S103F.inc
PC_CR1                                500D         no  WORD  Internal   ABS     48  private  data         0     0  c:\program files (x86)\stmicroelectronics\st_toolset\asm\include\STM8S103F.inc
PC_CR2                                500E         no  WORD  Internal   ABS     50  private  data         0     0  c:\program files (x86)\stmicroelectronics\st_toolset\asm\include\STM8S103F.inc
PD_ODR                                500F         no  WORD  Internal   ABS     55  private  data         0     0  c:\program files (x86)\stmicroelectronics\st_toolset\asm\include\STM8S103F.inc
PD_IDR                                5010         no  WORD  Internal   ABS     57  private  data         0     0  c:\program files (x86)\stmicroelectronics\st_toolset\asm\include\STM8S103F.inc
PD_DDR                                5011         no  WORD  Internal   ABS     59  private  data         0     0  c:\program files (x86)\stmicroelectronics\st_toolset\asm\include\STM8S103F.inc
PD_CR1                                5012         no  WORD  Internal   ABS     61  private  data         0     0  c:\program files (x86)\stmicroelectronics\st_toolset\asm\include\STM8S103F.inc
PD_CR2                                5013         no  WORD  Internal   ABS     63  private  data         0     0  c:\program files (x86)\stmicroelectronics\st_toolset\asm\include\STM8S103F.inc

RST_SR                                50B3         no  WORD  Internal   ABS     94  private  data         0     0  c:\program files (x86)\stmicroelectronics\st_toolset\asm\include\STM8S103F.inc

SPI_CR1                               5200         no  WORD  Internal   ABS    158  private  data         0     0  c:\program files (x86)\stmicroelectronics\st_toolset\asm\include\STM8S103F.inc
SPI_CR2                               5201         no  WORD  Internal   ABS    160  private  data         0     0  c:\program files (x86)\stmicroelectronics\st_toolset\asm\include\STM8S103F.inc
SPI_ICR                               5202         no  WORD  Internal   ABS    162  private  data         0     0  c:\program files (x86)\stmicroelectronics\st_toolset\asm\include\STM8S103F.inc
SPI_SR                                5203         no  WORD  Internal   ABS    164  private  data         0     0  c:\program files (x86)\stmicroelectronics\st_toolset\asm\include\STM8S103F.inc
SPI_DR                                5204         no  WORD  Internal   ABS    166  private  data         0     0  c:\program files (x86)\stmicroelectronics\st_toolset\asm\include\STM8S103F.inc
SPI_CRCPR                             5205         no  WORD  Internal   ABS    168  private  data         0     0  c:\program files (x86)\stmicroelectronics\st_toolset\asm\include\STM8S103F.inc
SPI_RXCRCR                            5206         no  WORD  Internal   ABS    170  private  data         0     0  c:\program files (x86)\stmicroelectronics\st_toolset\asm\include\STM8S103F.inc
SPI_TXCRCR                            5207         no  WORD  Internal   ABS    172  private  data         0     0  c:\program files (x86)\stmicroelectronics\st_toolset\asm\include\STM8S103F.inc
SPI                                   8125         no  WORD  Internal   ABS    139  private  textdata     4     0  -

TIM1_CR1                              5250         no  WORD  Internal   ABS    233  private  data         0     0  c:\program files (x86)\stmicroelectronics\st_toolset\asm\include\STM8S103F.inc
TIM1_CR2                              5251         no  WORD  Internal   ABS    235  private  data         0     0  c:\program files (x86)\stmicroelectronics\st_toolset\asm\include\STM8S103F.inc
TIM1_SMCR                             5252         no  WORD  Internal   ABS    237  private  data         0     0  c:\program files (x86)\stmicroelectronics\st_toolset\asm\include\STM8S103F.inc
TIM1_ETR                              5253         no  WORD  Internal   ABS    239  private  data         0     0  c:\program files (x86)\stmicroelectronics\st_toolset\asm\include\STM8S103F.inc
TIM1_IER                              5254         no  WORD  Internal   ABS    241  private  data         0     0  c:\program files (x86)\stmicroelectronics\st_toolset\asm\include\STM8S103F.inc
TIM1_SR1                              5255         no  WORD  Internal   ABS    243  private  data         0     0  c:\program files (x86)\stmicroelectronics\st_toolset\asm\include\STM8S103F.inc
TIM1_SR2                              5256         no  WORD  Internal   ABS    245  private  data         0     0  c:\program files (x86)\stmicroelectronics\st_toolset\asm\include\STM8S103F.inc
TIM1_EGR                              5257         no  WORD  Internal   ABS    247  private  data         0     0  c:\program files (x86)\stmicroelectronics\st_toolset\asm\include\STM8S103F.inc
TIM1_CCMR1                            5258         no  WORD  Internal   ABS    249  private  data         0     0  c:\program files (x86)\stmicroelectronics\st_toolset\asm\include\STM8S103F.inc
TIM1_CCMR2                            5259         no  WORD  Internal   ABS    251  private  data         0     0  c:\program files (x86)\stmicroelectronics\st_toolset\asm\include\STM8S103F.inc
TIM1_CCMR3                            525A         no  WORD  Internal   ABS    253  private  data         0     0  c:\program files (x86)\stmicroelectronics\st_toolset\asm\include\STM8S103F.inc
TIM1_CCMR4                            525B         no  WORD  Internal   ABS    255  private  data         0     0  c:\program files (x86)\stmicroelectronics\st_toolset\asm\include\STM8S103F.inc
TIM1_CCER1                            525C         no  WORD  Internal   ABS    257  private  data         0     0  c:\program files (x86)\stmicroelectronics\st_toolset\asm\include\STM8S103F.inc
TIM1_CCER2                            525D         no  WORD  Internal   ABS    259  private  data         0     0  c:\program files (x86)\stmicroelectronics\st_toolset\asm\include\STM8S103F.inc
TIM1_CNTRH                            525E         no  WORD  Internal   ABS    261  private  data         0     0  c:\program files (x86)\stmicroelectronics\st_toolset\asm\include\STM8S103F.inc
TIM1_CNTRL                            525F         no  WORD  Internal   ABS    263  private  data         0     0  c:\program files (x86)\stmicroelectronics\st_toolset\asm\include\STM8S103F.inc
TIM1_PSCRH                            5260         no  WORD  Internal   ABS    265  private  data         0     0  c:\program files (x86)\stmicroelectronics\st_toolset\asm\include\STM8S103F.inc
TIM1_PSCRL                            5261         no  WORD  Internal   ABS    267  private  data         0     0  c:\program files (x86)\stmicroelectronics\st_toolset\asm\include\STM8S103F.inc
TIM1_ARRH                             5262         no  WORD  Internal   ABS    269  private  data         0     0  c:\program files (x86)\stmicroelectronics\st_toolset\asm\include\STM8S103F.inc
TIM1_ARRL                             5263         no  WORD  Internal   ABS    271  private  data         0     0  c:\program files (x86)\stmicroelectronics\st_toolset\asm\include\STM8S103F.inc
TIM1_RCR                              5264         no  WORD  Internal   ABS    273  private  data         0     0  c:\program files (x86)\stmicroelectronics\st_toolset\asm\include\STM8S103F.inc
TIM1_CCR1H                            5265         no  WORD  Internal   ABS    275  private  data         0     0  c:\program files (x86)\stmicroelectronics\st_toolset\asm\include\STM8S103F.inc
TIM1_CCR1L                            5266         no  WORD  Internal   ABS    277  private  data         0     0  c:\program files (x86)\stmicroelectronics\st_toolset\asm\include\STM8S103F.inc
TIM1_CCR2H                            5267         no  WORD  Internal   ABS    279  private  data         0     0  c:\program files (x86)\stmicroelectronics\st_toolset\asm\include\STM8S103F.inc
TIM1_CCR2L                            5268         no  WORD  Internal   ABS    281  private  data         0     0  c:\program files (x86)\stmicroelectronics\st_toolset\asm\include\STM8S103F.inc
TIM1_CCR3H                            5269         no  WORD  Internal   ABS    283  private  data         0     0  c:\program files (x86)\stmicroelectronics\st_toolset\asm\include\STM8S103F.inc
TIM1_CCR3L                            526A         no  WORD  Internal   ABS    285  private  data         0     0  c:\program files (x86)\stmicroelectronics\st_toolset\asm\include\STM8S103F.inc
TIM1_CCR4H                            526B         no  WORD  Internal   ABS    287  private  data         0     0  c:\program files (x86)\stmicroelectronics\st_toolset\asm\include\STM8S103F.inc
TIM1_CCR4L                            526C         no  WORD  Internal   ABS    289  private  data         0     0  c:\program files (x86)\stmicroelectronics\st_toolset\asm\include\STM8S103F.inc
TIM1_BKR                              526D         no  WORD  Internal   ABS    291  private  data         0     0  c:\program files (x86)\stmicroelectronics\st_toolset\asm\include\STM8S103F.inc
TIM1_DTR                              526E         no  WORD  Internal   ABS    293  private  data         0     0  c:\program files (x86)\stmicroelectronics\st_toolset\asm\include\STM8S103F.inc
TIM1_OISR                             526F         no  WORD  Internal   ABS    295  private  data         0     0  c:\program files (x86)\stmicroelectronics\st_toolset\asm\include\STM8S103F.inc
TIM2_CR1                              5300         no  WORD  Internal   ABS    300  private  data         0     0  c:\program files (x86)\stmicroelectronics\st_toolset\asm\include\STM8S103F.inc
TIM2_IER                              5303         no  WORD  Internal   ABS    302  private  data         0     0  c:\program files (x86)\stmicroelectronics\st_toolset\asm\include\STM8S103F.inc
TIM2_SR1                              5304         no  WORD  Internal   ABS    304  private  data         0     0  c:\program files (x86)\stmicroelectronics\st_toolset\asm\include\STM8S103F.inc
TIM2_SR2                              5305         no  WORD  Internal   ABS    306  private  data         0     0  c:\program files (x86)\stmicroelectronics\st_toolset\asm\include\STM8S103F.inc
STMicroelectronics list file postprocessor v1.01   (C)2009-2022   Sun May 01 18:30:37 2022
Page 29  Assembler
                                               c:\users\manama\documents\stm8\stm8 programs\stm8sk9822ledstrip\main.asm

TIM2_EGR                              5306         no  WORD  Internal   ABS    308  private  data         0     0  c:\program files (x86)\stmicroelectronics\st_toolset\asm\include\STM8S103F.inc
TIM2_CCMR1                            5307         no  WORD  Internal   ABS    310  private  data         0     0  c:\program files (x86)\stmicroelectronics\st_toolset\asm\include\STM8S103F.inc
TIM2_CCMR2                            5308         no  WORD  Internal   ABS    312  private  data         0     0  c:\program files (x86)\stmicroelectronics\st_toolset\asm\include\STM8S103F.inc
TIM2_CCMR3                            5309         no  WORD  Internal   ABS    314  private  data         0     0  c:\program files (x86)\stmicroelectronics\st_toolset\asm\include\STM8S103F.inc
TIM2_CCER1                            530A         no  WORD  Internal   ABS    316  private  data         0     0  c:\program files (x86)\stmicroelectronics\st_toolset\asm\include\STM8S103F.inc
TIM2_CCER2                            530B         no  WORD  Internal   ABS    318  private  data         0     0  c:\program files (x86)\stmicroelectronics\st_toolset\asm\include\STM8S103F.inc
TIM2_CNTRH                            530C         no  WORD  Internal   ABS    320  private  data         0     0  c:\program files (x86)\stmicroelectronics\st_toolset\asm\include\STM8S103F.inc
TIM2_CNTRL                            530D         no  WORD  Internal   ABS    322  private  data         0     0  c:\program files (x86)\stmicroelectronics\st_toolset\asm\include\STM8S103F.inc
TIM2_PSCR                             530E         no  WORD  Internal   ABS    324  private  data         0     0  c:\program files (x86)\stmicroelectronics\st_toolset\asm\include\STM8S103F.inc
TIM2_ARRH                             530F         no  WORD  Internal   ABS    326  private  data         0     0  c:\program files (x86)\stmicroelectronics\st_toolset\asm\include\STM8S103F.inc
TIM2_ARRL                             5310         no  WORD  Internal   ABS    328  private  data         0     0  c:\program files (x86)\stmicroelectronics\st_toolset\asm\include\STM8S103F.inc
TIM2_CCR1H                            5311         no  WORD  Internal   ABS    330  private  data         0     0  c:\program files (x86)\stmicroelectronics\st_toolset\asm\include\STM8S103F.inc
TIM2_CCR1L                            5312         no  WORD  Internal   ABS    332  private  data         0     0  c:\program files (x86)\stmicroelectronics\st_toolset\asm\include\STM8S103F.inc
TIM2_CCR2H                            5313         no  WORD  Internal   ABS    334  private  data         0     0  c:\program files (x86)\stmicroelectronics\st_toolset\asm\include\STM8S103F.inc
TIM2_CCR2L                            5314         no  WORD  Internal   ABS    336  private  data         0     0  c:\program files (x86)\stmicroelectronics\st_toolset\asm\include\STM8S103F.inc
TIM2_CCR3H                            5315         no  WORD  Internal   ABS    338  private  data         0     0  c:\program files (x86)\stmicroelectronics\st_toolset\asm\include\STM8S103F.inc
TIM2_CCR3L                            5316         no  WORD  Internal   ABS    340  private  data         0     0  c:\program files (x86)\stmicroelectronics\st_toolset\asm\include\STM8S103F.inc
TIM4_CR1                              5340         no  WORD  Internal   ABS    345  private  data         0     0  c:\program files (x86)\stmicroelectronics\st_toolset\asm\include\STM8S103F.inc
TIM4_IER                              5343         no  WORD  Internal   ABS    347  private  data         0     0  c:\program files (x86)\stmicroelectronics\st_toolset\asm\include\STM8S103F.inc
TIM4_SR                               5344         no  WORD  Internal   ABS    349  private  data         0     0  c:\program files (x86)\stmicroelectronics\st_toolset\asm\include\STM8S103F.inc
TIM4_EGR                              5345         no  WORD  Internal   ABS    351  private  data         0     0  c:\program files (x86)\stmicroelectronics\st_toolset\asm\include\STM8S103F.inc
TIM4_CNTR                             5346         no  WORD  Internal   ABS    353  private  data         0     0  c:\program files (x86)\stmicroelectronics\st_toolset\asm\include\STM8S103F.inc
TIM4_PSCR                             5347         no  WORD  Internal   ABS    355  private  data         0     0  c:\program files (x86)\stmicroelectronics\st_toolset\asm\include\STM8S103F.inc
TIM4_ARR                              5348         no  WORD  Internal   ABS    357  private  data         0     0  c:\program files (x86)\stmicroelectronics\st_toolset\asm\include\STM8S103F.inc
TX                                    8129         no  WORD  Internal   ABS    141  private  textdata    31     0  -

UART1_SR                              5230         no  WORD  Internal   ABS    208  private  data         0     0  c:\program files (x86)\stmicroelectronics\st_toolset\asm\include\STM8S103F.inc
UART1_DR                              5231         no  WORD  Internal   ABS    210  private  data         0     0  c:\program files (x86)\stmicroelectronics\st_toolset\asm\include\STM8S103F.inc
UART1_BRR1                            5232         no  WORD  Internal   ABS    212  private  data         0     0  c:\program files (x86)\stmicroelectronics\st_toolset\asm\include\STM8S103F.inc
UART1_BRR2                            5233         no  WORD  Internal   ABS    214  private  data         0     0  c:\program files (x86)\stmicroelectronics\st_toolset\asm\include\STM8S103F.inc
UART1_CR1                             5234         no  WORD  Internal   ABS    216  private  data         0     0  c:\program files (x86)\stmicroelectronics\st_toolset\asm\include\STM8S103F.inc
UART1_CR2                             5235         no  WORD  Internal   ABS    218  private  data         0     0  c:\program files (x86)\stmicroelectronics\st_toolset\asm\include\STM8S103F.inc
UART1_CR3                             5236         no  WORD  Internal   ABS    220  private  data         0     0  c:\program files (x86)\stmicroelectronics\st_toolset\asm\include\STM8S103F.inc
UART1_CR4                             5237         no  WORD  Internal   ABS    222  private  data         0     0  c:\program files (x86)\stmicroelectronics\st_toolset\asm\include\STM8S103F.inc
UART1_CR5                             5238         no  WORD  Internal   ABS    224  private  data         0     0  c:\program files (x86)\stmicroelectronics\st_toolset\asm\include\STM8S103F.inc
UART1_GTR                             5239         no  WORD  Internal   ABS    226  private  data         0     0  c:\program files (x86)\stmicroelectronics\st_toolset\asm\include\STM8S103F.inc
UART1_PSCR                            523A         no  WORD  Internal   ABS    228  private  data         0     0  c:\program files (x86)\stmicroelectronics\st_toolset\asm\include\STM8S103F.inc

WWDG_CR                               50D1         no  WORD  Internal   ABS    128  private  data         0     0  c:\program files (x86)\stmicroelectronics\st_toolset\asm\include\STM8S103F.inc
WWDG_WR                               50D2         no  WORD  Internal   ABS    130  private  data         0     0  c:\program files (x86)\stmicroelectronics\st_toolset\asm\include\STM8S103F.inc

audiframe                             82F9         no  WORD  Internal   ABS    317  private  textdata     4     0  -
audiloop                              8322         no  WORD  Internal   ABS    334  private  textdata    51     0  -

buffer1                               0100         no  WORD  Internal   ABS     31  private  bss          1     1  -
buffer2                               0101         no  WORD  Internal   ABS     32  private  bss          1     1  -
buffer3                               0102         no  WORD  Internal   ABS     33  private  bss          1     1  -
buffer4                               0103         no  WORD  Internal   ABS     34  private  bss          1     1  -
blue                                  0107         no  WORD  Internal   ABS     38  private  bss          1     1  -
blueframe                             81A8         no  WORD  Internal   ABS    191  private  textdata     4     0  -
bloop                                 81AC         no  WORD  Internal   ABS    193  private  textdata    49     0  -
bullet                                8256         no  WORD  Internal   ABS    258  private  textdata     8     0  -
bulletframe                           828A         no  WORD  Internal   ABS    279  private  textdata    49     0  -

colourstep                            0108         no  WORD  Internal   ABS     39  private  bss          1     1  -
clear_ram0                        00008087         no  LONG  Internal   ABS     55  private  textdata    10     0  -
clear_ram1                        00008091         no  LONG  Internal   ABS     67  private  textdata    10     0  -
STMicroelectronics list file postprocessor v1.01   (C)2009-2022   Sun May 01 18:30:37 2022
Page 30  Assembler
                                               c:\users\manama\documents\stm8\stm8 programs\stm8sk9822ledstrip\main.asm

clear_stack                       0000809B         no  LONG  Internal   ABS     78  private  textdata     7     0  -
colour1                               84F3         no  WORD  Internal   ABS    526  private  textdata    15     1  -
colour2                               8502         no  WORD  Internal   ABS    527  private  textdata    15     1  -
colour3                               8511         no  WORD  Internal   ABS    529  private  textdata    15     1  -
colour4                               8520         no  WORD  Internal   ABS    530  private  textdata    15     1  -
colour5                               852F         no  WORD  Internal   ABS    532  private  textdata    15     1  -
colour6                               853E         no  WORD  Internal   ABS    533  private  textdata    15     1  -
colour7                               854D         no  WORD  Internal   ABS    535  private  textdata    15     1  -
colour8                               855C         no  WORD  Internal   ABS    536  private  textdata    15     1  -
colour9                               856B         no  WORD  Internal   ABS    538  private  textdata    15     1  -
colour10                              857A         no  WORD  Internal   ABS    539  private  textdata    15     1  -
colour11                              8589         no  WORD  Internal   ABS    541  private  textdata    15     1  -
colour12                              8598         no  WORD  Internal   ABS    542  private  textdata    15     1  -
colour13                              85A7         no  WORD  Internal   ABS    544  private  textdata    15     1  -
colour14                              85B6         no  WORD  Internal   ABS    545  private  textdata    15     1  -
colour15                              85C5         no  WORD  Internal   ABS    547  private  textdata    15     1  -
colour16                              85D4         no  WORD  Internal   ABS    548  private  textdata    15     1  -
colour17                              85E3         no  WORD  Internal   ABS    550  private  textdata    15     1  -
colour18                              85F2         no  WORD  Internal   ABS    551  private  textdata    15     1  -
colour19                              8601         no  WORD  Internal   ABS    553  private  textdata    15     1  -
colour20                              8610         no  WORD  Internal   ABS    554  private  textdata    15     1  -

data                                  0104         no  WORD  Internal   ABS     35  private  bss          1     1  -
delayYx1mS                            8383         no  WORD  Internal   ABS    371  private  textdata     8     0  -
delay1mS                              838B         no  WORD  Internal   ABS    376  private  textdata     6     0  -
delay1mS_01                           8391         no  WORD  Internal   ABS    379  private  textdata     7     0  -

end_frame                             8247         no  WORD  Internal   ABS    251  private  textdata    15     0  -

fclk                              00F42400         no  LONG  Internal   ABS     89  private  textdata     0     0  -
frame0                                8212         no  WORD  Internal   ABS    231  private  textdata     4     0  -
fframe                                8279         no  WORD  Internal   ABS    272  private  textdata    17     0  -
fade                                  84A3         no  WORD  Internal   ABS    485  private  textdata    22     0  -
floop                                 84B9         no  WORD  Internal   ABS    497  private  textdata    58     0  -

green                                 0106         no  WORD  Internal   ABS     37  private  bss          1     1  -
greenframe                            8173         no  WORD  Internal   ABS    171  private  textdata     4     0  -
gloop                                 8177         no  WORD  Internal   ABS    173  private  textdata    49     0  -

hi                                    8148         no  WORD  Internal   ABS    152  private  textdata    25     0  -

infinite_loop                     000080A2         no  LONG  Internal   ABS     87  private  textdata    32     0  -

loop0                                 8216         no  WORD  Internal   ABS    233  private  textdata    49     0  -

main                              00008080         no  LONG  Internal   ABS     45  private  textdata     7     0  -
mainloop                              80C2         no  WORD  Internal   ABS    102  private  textdata    99     0  -
movframe1                             8315         no  WORD  Internal   ABS    329  private  textdata    13     0  -
ms2000                                83A5         no  WORD  Internal   ABS    395  private  textdata    12     0  -
ms500                                 83B1         no  WORD  Internal   ABS    399  private  textdata    12     0  -
ms250                                 83BD         no  WORD  Internal   ABS    402  private  textdata    12     0  -
ms100                                 83C9         no  WORD  Internal   ABS    405  private  textdata    12     0  -
ms50                                  83D5         no  WORD  Internal   ABS    408  private  textdata    11     0  -
ms30                                  83E0         no  WORD  Internal   ABS    410  private  textdata    12     0  -
ms10                                  83EC         no  WORD  Internal   ABS    413  private  textdata    12     0  -
mixframe1                             8404         no  WORD  Internal   ABS    423  private  textdata     4     0  -
m1loop                                8408         no  WORD  Internal   ABS    425  private  textdata    49     0  -
STMicroelectronics list file postprocessor v1.01   (C)2009-2022   Sun May 01 18:30:37 2022
Page 31  Assembler
                                               c:\users\manama\documents\stm8\stm8 programs\stm8sk9822ledstrip\main.asm

mixframe2                             8439         no  WORD  Internal   ABS    443  private  textdata     4     0  -
m2loop                                843D         no  WORD  Internal   ABS    445  private  textdata    49     0  -
mixframe3                             846E         no  WORD  Internal   ABS    462  private  textdata     4     0  -
m3loop                                8472         no  WORD  Internal   ABS    464  private  textdata    49     0  -

pwmup                                 861F         no  WORD  Internal   ABS    557  private  textdata    10     1  -
pwmdown                               8629         no  WORD  Internal   ABS    558  private  textdata    10     1  -

red                                   0105         no  WORD  Internal   ABS     36  private  bss          1     1  -
ram0_start                              00         no  BYTE  Internal   ABS     52  private  textdata     0     0  -
ram0_end                                FF         no  BYTE  Internal   ABS     53  private  textdata     0     0  -
ram1_start                            0100         no  WORD  Internal   ABS     64  private  textdata     0     0  -
ram1_end                              01FF         no  WORD  Internal   ABS     65  private  textdata     0     0  -
redframe                              81DD         no  WORD  Internal   ABS    211  private  textdata     4     0  -
rloop                                 81E1         no  WORD  Internal   ABS    213  private  textdata    49     0  -

stack_start                           0200         no  WORD  Internal   ABS     75  private  textdata     0     0  -
stack_end                             03FF         no  WORD  Internal   ABS     76  private  textdata     0     0  -
start_frame                           8161         no  WORD  Internal   ABS    162  private  textdata     4     0  -
st_tx                                 8165         no  WORD  Internal   ABS    164  private  textdata    14     0  -
subloop0                              82BB         no  WORD  Internal   ABS    295  private  textdata    62     0  -
subloop1                              8355         no  WORD  Internal   ABS    351  private  textdata    46     0  -

usdelay                               8398         no  WORD  Internal   ABS    386  private  textdata    13     0  -
us1                                   83F8         no  WORD  Internal   ABS    416  private  textdata    12     0  -


280 labels
No errors on assembly of 'c:\users\manama\documents\stm8\stm8 programs\stm8sk9822ledstrip\main.asm'